---
triple:          'arm64-apple-darwin'
binary-path:     spicy-bench
relocations:
  - { offset: 0x39, size: 0x8, addend: 0x0, symName: __ZN11__hlt_bench9Benchmark8WithUnit8__parserE, symObjAddr: 0x8388, symBinAddr: 0x1000BC000, symSize: 0x0 }
  - { offset: 0x38C, size: 0x8, addend: 0x0, symName: __MergedGlobals, symObjAddr: 0x13A918, symBinAddr: 0x1000BC320, symSize: 0x0 }
  - { offset: 0x3AC, size: 0x8, addend: 0x0, symName: __MergedGlobals, symObjAddr: 0x13A918, symBinAddr: 0x1000BC320, symSize: 0x0 }
  - { offset: 0x3C7, size: 0x8, addend: 0x0, symName: __MergedGlobals, symObjAddr: 0x13A918, symBinAddr: 0x1000BC320, symSize: 0x0 }
  - { offset: 0x3E2, size: 0x8, addend: 0x0, symName: __MergedGlobals, symObjAddr: 0x13A918, symBinAddr: 0x1000BC320, symSize: 0x0 }
  - { offset: 0x3FE, size: 0x8, addend: 0x0, symName: __MergedGlobals, symObjAddr: 0x13A918, symBinAddr: 0x1000BC320, symSize: 0x0 }
  - { offset: 0x41A, size: 0x8, addend: 0x0, symName: __MergedGlobals, symObjAddr: 0x13A918, symBinAddr: 0x1000BC320, symSize: 0x0 }
  - { offset: 0x354E, size: 0x8, addend: 0x0, symName: __ZN5hilti2rt6vectoreqERKNS1_13ConstIteratorINSt3__112basic_stringIcNS3_11char_traitsIcEENS3_9allocatorIcEEEENS7_IS9_EEEESD_, symObjAddr: 0x3CC0, symBinAddr: 0x100004670, symSize: 0x13C }
  - { offset: 0x3784, size: 0x8, addend: 0x0, symName: __ZN5hilti2rt6vectoreqERKNS1_13ConstIteratorIN11__hlt_bench9Benchmark5InnerENSt3__19allocatorIS5_EEEESB_, symObjAddr: 0x4BC8, symBinAddr: 0x100005578, symSize: 0x13C }
  - { offset: 0x49F2, size: 0x8, addend: 0x0, symName: __ZN5hilti2rt6detail3adl9to_stringIN11__hlt_bench9Benchmark5InnerENSt3__19allocatorIS6_EEEENS7_12basic_stringIcNS7_11char_traitsIcEENS8_IcEEEERKNS0_6VectorIT_T0_EENS2_3tagE, symObjAddr: 0x2D54, symBinAddr: 0x100003704, symSize: 0x16C }
  - { offset: 0x7DD1, size: 0x8, addend: 0x0, symName: __ZN5hilti2rt9reference10make_valueINS0_6StreamEJRNSt3__112basic_stringIcNS4_11char_traitsIcEENS4_9allocatorIcEEEEEEENS0_14ValueReferenceIT_EEDpOT0_, symObjAddr: 0x3F0, symBinAddr: 0x100000DA0, symSize: 0x14C }
  - { offset: 0x8843, size: 0x8, addend: 0x0, symName: __ZN5hilti2rt9to_stringIRKNSt3__18optionalINS0_18RecoverableFailureEEEEENS2_12basic_stringIcNS2_11char_traitsIcEENS2_9allocatorIcEEEEOT_, symObjAddr: 0x2304, symBinAddr: 0x100002CB4, symSize: 0xDC }
  - { offset: 0x8FAD, size: 0x8, addend: 0x0, symName: __ZN5hilti2rt9transformINS0_6VectorIN11__hlt_bench9Benchmark5InnerENSt3__19allocatorIS5_EEEEZNS0_6detail3adl9to_stringIS5_S8_EENS6_12basic_stringIcNS6_11char_traitsIcEENS7_IcEEEERKNS2_IT_T0_EENSB_3tagEEUlRKS5_E_EEDaRKSI_SJ_, symObjAddr: 0x3268, symBinAddr: 0x100003C18, symSize: 0x3A0 }
  - { offset: 0xA530, size: 0x8, addend: 0x0, symName: __ZN5hilti2rt4joinINS0_6VectorINSt3__112basic_stringIcNS3_11char_traitsIcEENS3_9allocatorIcEEEENS7_IS9_EEEEEES9_RKT_RKS9_, symObjAddr: 0x2EC0, symBinAddr: 0x100003870, symSize: 0x3A8 }
  - { offset: 0xB572, size: 0x8, addend: 0x0, symName: __ZN5hilti2rt9to_stringIRKNSt3__18optionalINS0_6VectorIN11__hlt_bench9Benchmark5InnerENS2_9allocatorIS7_EEEEEEEENS2_12basic_stringIcNS2_11char_traitsIcEENS8_IcEEEEOT_, symObjAddr: 0x59DC, symBinAddr: 0x10000638C, symSize: 0x13C }
  - { offset: 0xBEBA, size: 0x8, addend: 0x0, symName: __ZN5hilti2rt9to_stringIRKNSt3__18optionalINS0_5BytesEEEEENS2_12basic_stringIcNS2_11char_traitsIcEENS2_9allocatorIcEEEEOT_, symObjAddr: 0x5B18, symBinAddr: 0x1000064C8, symSize: 0x138 }
  - { offset: 0x25BCF, size: 0x8, addend: 0x0, symName: __ZNSt3__124__put_character_sequenceB8ne180100IcNS_11char_traitsIcEEEERNS_13basic_ostreamIT_T0_EES7_PKS4_m, symObjAddr: 0x2A48, symBinAddr: 0x1000033F8, symSize: 0x164 }
  - { offset: 0x2BE78, size: 0x8, addend: 0x0, symName: __ZNSt3__125__throw_bad_function_callB8ne180100Ev, symObjAddr: 0x6F5C, symBinAddr: 0x1000078E4, symSize: 0x34 }
  - { offset: 0x2C5C9, size: 0x8, addend: 0x0, symName: __ZNSt3__120__throw_length_errorB8ne180100EPKc, symObjAddr: 0xF14, symBinAddr: 0x1000018C4, symSize: 0x50 }
  - { offset: 0x2D036, size: 0x8, addend: 0x0, symName: __ZNSt3__116__pad_and_outputB8ne180100IcNS_11char_traitsIcEEEENS_19ostreambuf_iteratorIT_T0_EES6_PKS4_S8_S8_RNS_8ios_baseES4_, symObjAddr: 0x2BAC, symBinAddr: 0x10000355C, symSize: 0x1A4 }
  - { offset: 0x2E188, size: 0x8, addend: 0x0, symName: __ZNSt3__19transformB8ne180100IN5hilti2rt6vector13ConstIteratorIN11__hlt_bench9Benchmark5InnerENS_9allocatorIS7_EEEENS_15insert_iteratorINS2_6VectorINS_12basic_stringIcNS_11char_traitsIcEENS8_IcEEEENS8_ISH_EEEEEEZNS2_6detail3adl9to_stringIS7_S9_EESH_RKNSC_IT_T0_EENSM_3tagEEUlRKS7_E_EESP_SO_SO_SP_T1_, symObjAddr: 0x486C, symBinAddr: 0x10000521C, symSize: 0xC4 }
  - { offset: 0x2F192, size: 0x8, addend: 0x0, symName: __ZNSt3__135__uninitialized_allocator_copy_implB8ne180100INS_9allocatorIN11__hlt_bench9Benchmark5InnerEEEPS4_S6_S6_EET2_RT_T0_T1_S7_, symObjAddr: 0x5D1C, symBinAddr: 0x1000066B8, symSize: 0x10C }
  - { offset: 0x30B48, size: 0x8, addend: 0x0, symName: __ZSt28__throw_bad_array_new_lengthB8ne180100v, symObjAddr: 0xF88, symBinAddr: 0x100001938, symSize: 0x28 }
  - { offset: 0x366AD, size: 0x8, addend: 0x0, symName: __ZN10tinyformat6detail10formatImplERNSt3__113basic_ostreamIcNS1_11char_traitsIcEEEEPKcPKNS0_9FormatArgEi, symObjAddr: 0x13E8, symBinAddr: 0x100001D98, symSize: 0x508 }
  - { offset: 0x3714E, size: 0x8, addend: 0x0, symName: __ZN10tinyformat6detail21streamStateFromFormatERNSt3__113basic_ostreamIcNS1_11char_traitsIcEEEERbS7_RiPKcPKNS0_9FormatArgES8_i, symObjAddr: 0x18F0, symBinAddr: 0x1000022A0, symSize: 0x978 }
  - { offset: 0x37F04, size: 0x8, addend: 0x0, symName: __ZN10tinyformat6detail15formatTruncatedINSt3__112basic_stringIcNS2_11char_traitsIcEENS2_9allocatorIcEEEEEEvRNS2_13basic_ostreamIcS5_EERKT_i, symObjAddr: 0x38A0, symBinAddr: 0x100004250, symSize: 0x214 }
  - { offset: 0x3857F, size: 0x8, addend: 0x0, symName: __ZN10tinyformat6detail15formatTruncatedI7SafeIntIyN5hilti2rt7integer6detail16SafeIntExceptionEEEEvRNSt3__113basic_ostreamIcNS9_11char_traitsIcEEEERKT_i, symObjAddr: 0x41C0, symBinAddr: 0x100004B70, symSize: 0x200 }
  - { offset: 0x38BC4, size: 0x8, addend: 0x0, symName: __ZN10tinyformat6detail15formatTruncatedIyEEvRNSt3__113basic_ostreamIcNS2_11char_traitsIcEEEERKT_i, symObjAddr: 0x466C, symBinAddr: 0x10000501C, symSize: 0x200 }
  - { offset: 0x391E4, size: 0x8, addend: 0x0, symName: __ZN10tinyformat6formatIJPKcEEENSt3__112basic_stringIcNS3_11char_traitsIcEENS3_9allocatorIcEEEES2_DpRKT_, symObjAddr: 0x11AC, symBinAddr: 0x100001B5C, symSize: 0x1B8 }
  - { offset: 0x39714, size: 0x8, addend: 0x0, symName: __ZN10tinyformat6formatIJhEEENSt3__112basic_stringIcNS1_11char_traitsIcEENS1_9allocatorIcEEEEPKcDpRKT_, symObjAddr: 0x2824, symBinAddr: 0x1000031D4, symSize: 0x1B8 }
  - { offset: 0x39BDE, size: 0x8, addend: 0x0, symName: __ZN10tinyformat6formatIJNSt3__112basic_stringIcNS1_11char_traitsIcEENS1_9allocatorIcEEEEEEES7_PKcDpRKT_, symObjAddr: 0x36B4, symBinAddr: 0x100004064, symSize: 0x1B8 }
  - { offset: 0x3A0CF, size: 0x8, addend: 0x0, symName: __ZN10tinyformat6formatIJ7SafeIntIyN5hilti2rt7integer6detail16SafeIntExceptionEEEEENSt3__112basic_stringIcNS8_11char_traitsIcEENS8_9allocatorIcEEEEPKcDpRKT_, symObjAddr: 0x3F7C, symBinAddr: 0x10000492C, symSize: 0x1B8 }
  - { offset: 0x3A4EF, size: 0x8, addend: 0x0, symName: __ZN10tinyformat6formatIJyEEENSt3__112basic_stringIcNS1_11char_traitsIcEENS1_9allocatorIcEEEEPKcDpRKT_, symObjAddr: 0x444C, symBinAddr: 0x100004DFC, symSize: 0x1B8 }
  - { offset: 0x3B7BD, size: 0x8, addend: 0x0, symName: __ZN5spicy2rt6ParserD1Ev, symObjAddr: 0x0, symBinAddr: 0x1000009B0, symSize: 0x4 }
  - { offset: 0x3B7E9, size: 0x8, addend: 0x0, symName: __ZN5spicy2rt6ParserD1Ev, symObjAddr: 0x0, symBinAddr: 0x1000009B0, symSize: 0x4 }
  - { offset: 0x3B7FC, size: 0x8, addend: 0x0, symName: __ZN5spicy2rt6ParserD2Ev, symObjAddr: 0xFB0, symBinAddr: 0x100001960, symSize: 0x1B4 }
  - { offset: 0x3C556, size: 0x8, addend: 0x0, symName: __ZN5hilti2rt5BytesD1Ev, symObjAddr: 0x4, symBinAddr: 0x1000009B4, symSize: 0x78 }
  - { offset: 0x3C78A, size: 0x8, addend: 0x0, symName: __ZN5hilti2rt8TypeInfoD1Ev, symObjAddr: 0x7C, symBinAddr: 0x100000A2C, symSize: 0x38 }
  - { offset: 0x3C830, size: 0x8, addend: 0x0, symName: __ZN5hilti2rt9type_info7struct_5Field16accessor_defaultERKNS1_5ValueE, symObjAddr: 0xB4, symBinAddr: 0x100000A64, symSize: 0x4 }
  - { offset: 0x3C857, size: 0x8, addend: 0x0, symName: __ZN5hilti2rt9type_info7struct_5Field16accessor_defaultERKNS1_5ValueE, symObjAddr: 0xB4, symBinAddr: 0x100000A64, symSize: 0x4 }
  - { offset: 0x3C86A, size: 0x8, addend: 0x0, symName: __ZNK5hilti2rt9type_info5Value7pointerEv, symObjAddr: 0x250C, symBinAddr: 0x100002EBC, symSize: 0xB4 }
  - { offset: 0x3C9C4, size: 0x8, addend: 0x0, symName: __Z10big_endiany, symObjAddr: 0xB8, symBinAddr: 0x100000A68, symSize: 0x4C }
  - { offset: 0x3CD15, size: 0x8, addend: 0x0, symName: __Z10make_inputv, symObjAddr: 0x104, symBinAddr: 0x100000AB4, symSize: 0x120 }
  - { offset: 0x3DE93, size: 0x8, addend: 0x0, symName: __Z11time_parserNSt3__112basic_stringIcNS_11char_traitsIcEENS_9allocatorIcEEEENS_8functionIFN5hilti2rt9ResumableERNS8_14ValueReferenceINS8_6StreamEEERKNS_8optionalINS8_6stream4ViewEEERKNSE_IN5spicy2rt11UnitContextEEEEEE, symObjAddr: 0x224, symBinAddr: 0x100000BD4, symSize: 0x1CC }
  - { offset: 0x3E9E9, size: 0x8, addend: 0x0, symName: __ZN5hilti2rt9ResumableD2Ev, symObjAddr: 0x6054, symBinAddr: 0x1000069F0, symSize: 0xA8 }
  - { offset: 0x3ED62, size: 0x8, addend: 0x0, symName: __ZN5hilti2rt6stream4ViewD2Ev, symObjAddr: 0x6130, symBinAddr: 0x100006ACC, symSize: 0xC8 }
  - { offset: 0x3F270, size: 0x8, addend: 0x0, symName: __ZN5hilti2rt14ValueReferenceINS0_6StreamEED1Ev, symObjAddr: 0x53C, symBinAddr: 0x100000EEC, symSize: 0x58 }
  - { offset: 0x3FC17, size: 0x8, addend: 0x0, symName: __ZNSt3__112basic_stringIcNS_11char_traitsIcEENS_9allocatorIcEEE25__init_copy_ctor_externalEPKcm, symObjAddr: 0x5FC8, symBinAddr: 0x100006964, symSize: 0x8C }
  - { offset: 0x3FF79, size: 0x8, addend: 0x0, symName: __ZN5hilti2rt9ResumableD2Ev, symObjAddr: 0x6054, symBinAddr: 0x1000069F0, symSize: 0xA8 }
  - { offset: 0x3FF8B, size: 0x8, addend: 0x0, symName: __ZN5hilti2rt6StreamC2EOS1_, symObjAddr: 0x6DF8, symBinAddr: 0x100007780, symSize: 0xBC }
  - { offset: 0x4035C, size: 0x8, addend: 0x0, symName: __ZN5hilti2rt6StreamD2Ev, symObjAddr: 0x6EB4, symBinAddr: 0x10000783C, symSize: 0xA8 }
  - { offset: 0x40A4E, size: 0x8, addend: 0x0, symName: _main, symObjAddr: 0x594, symBinAddr: 0x100000F44, symSize: 0x95C }
  - { offset: 0x41AD9, size: 0x8, addend: 0x0, symName: __ZNKSt3__112basic_stringIcNS_11char_traitsIcEENS_9allocatorIcEEE20__throw_length_errorB8ne180100Ev, symObjAddr: 0xF00, symBinAddr: 0x1000018B0, symSize: 0x14 }
  - { offset: 0x41B02, size: 0x8, addend: 0x0, symName: __ZNSt3__120__throw_length_errorB8ne180100EPKc, symObjAddr: 0xF14, symBinAddr: 0x1000018C4, symSize: 0x50 }
  - { offset: 0x41B0D, size: 0x8, addend: 0x0, symName: __ZNSt12length_errorC1B8ne180100EPKc, symObjAddr: 0xF64, symBinAddr: 0x100001914, symSize: 0x24 }
  - { offset: 0x41F80, size: 0x8, addend: 0x0, symName: '__ZN11__hlt_bench9type_info12_GLOBAL__N_13$_08__invokeEPKv', symObjAddr: 0x1164, symBinAddr: 0x100001B14, symSize: 0x48 }
  - { offset: 0x42329, size: 0x8, addend: 0x0, symName: __ZNSt3__119basic_ostringstreamIcNS_11char_traitsIcEENS_9allocatorIcEEED1Ev, symObjAddr: 0x1364, symBinAddr: 0x100001D14, symSize: 0x84 }
  - { offset: 0x42824, size: 0x8, addend: 0x0, symName: __ZN10tinyformat6detail9FormatArg10formatImplIPKcEEvRNSt3__113basic_ostreamIcNS5_11char_traitsIcEEEES4_S4_iPKv, symObjAddr: 0x2268, symBinAddr: 0x100002C18, symSize: 0x90 }
  - { offset: 0x429D4, size: 0x8, addend: 0x0, symName: __ZN10tinyformat6detail9FormatArg9toIntImplIPKcEEiPKv, symObjAddr: 0x22F8, symBinAddr: 0x100002CA8, symSize: 0x8 }
  - { offset: 0x42A35, size: 0x8, addend: 0x0, symName: '__ZN11__hlt_bench9type_info12_GLOBAL__N_13$_18__invokeEPKv', symObjAddr: 0x2300, symBinAddr: 0x100002CB0, symSize: 0x4 }
  - { offset: 0x42A5A, size: 0x8, addend: 0x0, symName: '__ZN11__hlt_bench9type_info12_GLOBAL__N_13$_18__invokeEPKv', symObjAddr: 0x2300, symBinAddr: 0x100002CB0, symSize: 0x4 }
  - { offset: 0x42A77, size: 0x8, addend: 0x0, symName: '__ZN11__hlt_bench9type_info12_GLOBAL__N_13$_18__invokeEPKv', symObjAddr: 0x2300, symBinAddr: 0x100002CB0, symSize: 0x4 }
  - { offset: 0x42D9A, size: 0x8, addend: 0x0, symName: __ZN5hilti2rt9ExceptionC2ERKS1_, symObjAddr: 0x23E0, symBinAddr: 0x100002D90, symSize: 0x10C }
  - { offset: 0x4357E, size: 0x8, addend: 0x0, symName: __ZZN5hilti2rt9type_info8Optional8accessorINS0_18RecoverableFailureEEEDavENUlRKNS1_5ValueEE_8__invokeES8_, symObjAddr: 0x24EC, symBinAddr: 0x100002E9C, symSize: 0x20 }
  - { offset: 0x4367E, size: 0x8, addend: 0x0, symName: __ZN5hilti2rt12InvalidValueC1ENSt3__117basic_string_viewIcNS2_11char_traitsIcEEEE, symObjAddr: 0x25C0, symBinAddr: 0x100002F70, symSize: 0x38 }
  - { offset: 0x43782, size: 0x8, addend: 0x0, symName: '__ZN11__hlt_bench9type_info12_GLOBAL__N_13$_28__invokeEPKv', symObjAddr: 0x25F8, symBinAddr: 0x100002FA8, symSize: 0x4 }
  - { offset: 0x437A7, size: 0x8, addend: 0x0, symName: '__ZN11__hlt_bench9type_info12_GLOBAL__N_13$_28__invokeEPKv', symObjAddr: 0x25F8, symBinAddr: 0x100002FA8, symSize: 0x4 }
  - { offset: 0x437C2, size: 0x8, addend: 0x0, symName: '__ZN11__hlt_bench9type_info12_GLOBAL__N_13$_28__invokeEPKv', symObjAddr: 0x25F8, symBinAddr: 0x100002FA8, symSize: 0x4 }
  - { offset: 0x437DD, size: 0x8, addend: 0x0, symName: '__ZN11__hlt_bench9type_info12_GLOBAL__N_13$_28__invokeEPKv', symObjAddr: 0x25F8, symBinAddr: 0x100002FA8, symSize: 0x4 }
  - { offset: 0x437FC, size: 0x8, addend: 0x0, symName: '__ZN11__hlt_bench9type_info12_GLOBAL__N_13$_28__invokeEPKv', symObjAddr: 0x25F8, symBinAddr: 0x100002FA8, symSize: 0x4 }
  - { offset: 0x43816, size: 0x8, addend: 0x0, symName: __ZNK11__hlt_bench9Benchmark5Inner11__to_stringEv, symObjAddr: 0x25FC, symBinAddr: 0x100002FAC, symSize: 0x228 }
  - { offset: 0x44818, size: 0x8, addend: 0x0, symName: __ZN10tinyformat6detail9FormatArg10formatImplIhEEvRNSt3__113basic_ostreamIcNS3_11char_traitsIcEEEEPKcSA_iPKv, symObjAddr: 0x29DC, symBinAddr: 0x10000338C, symSize: 0x64 }
  - { offset: 0x448F7, size: 0x8, addend: 0x0, symName: __ZN10tinyformat6detail9FormatArg9toIntImplIhEEiPKv, symObjAddr: 0x2A40, symBinAddr: 0x1000033F0, symSize: 0x8 }
  - { offset: 0x4491E, size: 0x8, addend: 0x0, symName: __ZN10tinyformat6detail9FormatArg9toIntImplIhEEiPKv, symObjAddr: 0x2A40, symBinAddr: 0x1000033F0, symSize: 0x8 }
  - { offset: 0x44B2C, size: 0x8, addend: 0x0, symName: '__ZN11__hlt_bench9type_info12_GLOBAL__N_13$_38__invokeEPKv', symObjAddr: 0x2D50, symBinAddr: 0x100003700, symSize: 0x4 }
  - { offset: 0x44B51, size: 0x8, addend: 0x0, symName: '__ZN11__hlt_bench9type_info12_GLOBAL__N_13$_38__invokeEPKv', symObjAddr: 0x2D50, symBinAddr: 0x100003700, symSize: 0x4 }
  - { offset: 0x44B6C, size: 0x8, addend: 0x0, symName: '__ZN11__hlt_bench9type_info12_GLOBAL__N_13$_38__invokeEPKv', symObjAddr: 0x2D50, symBinAddr: 0x100003700, symSize: 0x4 }
  - { offset: 0x44B8A, size: 0x8, addend: 0x0, symName: '__ZN11__hlt_bench9type_info12_GLOBAL__N_13$_38__invokeEPKv', symObjAddr: 0x2D50, symBinAddr: 0x100003700, symSize: 0x4 }
  - { offset: 0x44D3D, size: 0x8, addend: 0x0, symName: __ZN5hilti2rt6VectorINSt3__112basic_stringIcNS2_11char_traitsIcEENS2_9allocatorIcEEEENS6_IS8_EEED1Ev, symObjAddr: 0x3608, symBinAddr: 0x100003FB8, symSize: 0xAC }
  - { offset: 0x45552, size: 0x8, addend: 0x0, symName: __ZNK5hilti2rt6vector13ConstIteratorINSt3__112basic_stringIcNS3_11char_traitsIcEENS3_9allocatorIcEEEENS7_IS9_EEEdeEv, symObjAddr: 0x3AB4, symBinAddr: 0x100004464, symSize: 0x1D4 }
  - { offset: 0x458F1, size: 0x8, addend: 0x0, symName: __ZN5hilti2rt7integer6detail16SafeIntException17SafeIntOnOverflowEv, symObjAddr: 0x43C0, symBinAddr: 0x100004D70, symSize: 0x54 }
  - { offset: 0x4617E, size: 0x8, addend: 0x0, symName: __ZN10tinyformat6detail9FormatArg10formatImplINSt3__112basic_stringIcNS3_11char_traitsIcEENS3_9allocatorIcEEEEEEvRNS3_13basic_ostreamIcS6_EEPKcSE_iPKv, symObjAddr: 0x386C, symBinAddr: 0x10000421C, symSize: 0x2C }
  - { offset: 0x461E2, size: 0x8, addend: 0x0, symName: __ZN10tinyformat6detail9FormatArg10formatImplINSt3__112basic_stringIcNS3_11char_traitsIcEENS3_9allocatorIcEEEEEEvRNS3_13basic_ostreamIcS6_EEPKcSE_iPKv, symObjAddr: 0x386C, symBinAddr: 0x10000421C, symSize: 0x2C }
  - { offset: 0x462C9, size: 0x8, addend: 0x0, symName: __ZN10tinyformat6detail9FormatArg9toIntImplINSt3__112basic_stringIcNS3_11char_traitsIcEENS3_9allocatorIcEEEEEEiPKv, symObjAddr: 0x3898, symBinAddr: 0x100004248, symSize: 0x8 }
  - { offset: 0x463CC, size: 0x8, addend: 0x0, symName: __ZNR5hilti2rt6VectorINSt3__112basic_stringIcNS2_11char_traitsIcEENS2_9allocatorIcEEEENS6_IS8_EEEixEy, symObjAddr: 0x3E6C, symBinAddr: 0x10000481C, symSize: 0x110 }
  - { offset: 0x46652, size: 0x8, addend: 0x0, symName: __ZN5hilti2rt15InvalidIteratorC1ENSt3__117basic_string_viewIcNS2_11char_traitsIcEEEE, symObjAddr: 0x3E34, symBinAddr: 0x1000047E4, symSize: 0x38 }
  - { offset: 0x466DB, size: 0x8, addend: 0x0, symName: __ZNSt3__120__shared_ptr_emplaceIPN5hilti2rt6VectorINS_12basic_stringIcNS_11char_traitsIcEENS_9allocatorIcEEEENS7_IS9_EEEENS7_ISC_EEED1Ev, symObjAddr: 0x3C88, symBinAddr: 0x100004638, symSize: 0x10 }
  - { offset: 0x466FD, size: 0x8, addend: 0x0, symName: __ZNSt3__120__shared_ptr_emplaceIPN5hilti2rt6VectorINS_12basic_stringIcNS_11char_traitsIcEENS_9allocatorIcEEEENS7_IS9_EEEENS7_ISC_EEED1Ev, symObjAddr: 0x3C88, symBinAddr: 0x100004638, symSize: 0x10 }
  - { offset: 0x46733, size: 0x8, addend: 0x0, symName: __ZNSt3__120__shared_ptr_emplaceIPN5hilti2rt6VectorINS_12basic_stringIcNS_11char_traitsIcEENS_9allocatorIcEEEENS7_IS9_EEEENS7_ISC_EEED0Ev, symObjAddr: 0x3C98, symBinAddr: 0x100004648, symSize: 0x20 }
  - { offset: 0x46796, size: 0x8, addend: 0x0, symName: __ZNSt3__120__shared_ptr_emplaceIPN5hilti2rt6VectorINS_12basic_stringIcNS_11char_traitsIcEENS_9allocatorIcEEEENS7_IS9_EEEENS7_ISC_EEE16__on_zero_sharedEv, symObjAddr: 0x3CB8, symBinAddr: 0x100004668, symSize: 0x4 }
  - { offset: 0x46813, size: 0x8, addend: 0x0, symName: __ZNSt3__120__shared_ptr_emplaceIPN5hilti2rt6VectorINS_12basic_stringIcNS_11char_traitsIcEENS_9allocatorIcEEEENS7_IS9_EEEENS7_ISC_EEE21__on_zero_shared_weakEv, symObjAddr: 0x3CBC, symBinAddr: 0x10000466C, symSize: 0x4 }
  - { offset: 0x46847, size: 0x8, addend: 0x0, symName: __ZNSt3__120__shared_ptr_emplaceIPN5hilti2rt6VectorINS_12basic_stringIcNS_11char_traitsIcEENS_9allocatorIcEEEENS7_IS9_EEEENS7_ISC_EEE21__on_zero_shared_weakEv, symObjAddr: 0x3CBC, symBinAddr: 0x10000466C, symSize: 0x4 }
  - { offset: 0x46869, size: 0x8, addend: 0x0, symName: __ZNSt3__120__shared_ptr_emplaceIPN5hilti2rt6VectorINS_12basic_stringIcNS_11char_traitsIcEENS_9allocatorIcEEEENS7_IS9_EEEENS7_ISC_EEE21__on_zero_shared_weakEv, symObjAddr: 0x3CBC, symBinAddr: 0x10000466C, symSize: 0x4 }
  - { offset: 0x4688B, size: 0x8, addend: 0x0, symName: __ZNSt3__120__shared_ptr_emplaceIPN5hilti2rt6VectorINS_12basic_stringIcNS_11char_traitsIcEENS_9allocatorIcEEEENS7_IS9_EEEENS7_ISC_EEE21__on_zero_shared_weakEv, symObjAddr: 0x3CBC, symBinAddr: 0x10000466C, symSize: 0x4 }
  - { offset: 0x468B6, size: 0x8, addend: 0x0, symName: __ZNSt3__120__shared_ptr_emplaceIPN5hilti2rt6VectorINS_12basic_stringIcNS_11char_traitsIcEENS_9allocatorIcEEEENS7_IS9_EEEENS7_ISC_EEE21__on_zero_shared_weakEv, symObjAddr: 0x3CBC, symBinAddr: 0x10000466C, symSize: 0x4 }
  - { offset: 0x468DC, size: 0x8, addend: 0x0, symName: __ZNSt3__120__shared_ptr_emplaceIPN5hilti2rt6VectorINS_12basic_stringIcNS_11char_traitsIcEENS_9allocatorIcEEEENS7_IS9_EEEENS7_ISC_EEE21__on_zero_shared_weakEv, symObjAddr: 0x3CBC, symBinAddr: 0x10000466C, symSize: 0x4 }
  - { offset: 0x469B0, size: 0x8, addend: 0x0, symName: __ZN5hilti2rt15InvalidArgumentC1ENSt3__117basic_string_viewIcNS2_11char_traitsIcEEEE, symObjAddr: 0x3DFC, symBinAddr: 0x1000047AC, symSize: 0x38 }
  - { offset: 0x46C7C, size: 0x8, addend: 0x0, symName: __ZN10tinyformat6detail9FormatArg10formatImplI7SafeIntIyN5hilti2rt7integer6detail16SafeIntExceptionEEEEvRNSt3__113basic_ostreamIcNSA_11char_traitsIcEEEEPKcSH_iPKv, symObjAddr: 0x4134, symBinAddr: 0x100004AE4, symSize: 0x6C }
  - { offset: 0x46DCB, size: 0x8, addend: 0x0, symName: __ZN10tinyformat6detail9FormatArg9toIntImplI7SafeIntIyN5hilti2rt7integer6detail16SafeIntExceptionEEEEiPKv, symObjAddr: 0x41A0, symBinAddr: 0x100004B50, symSize: 0x20 }
  - { offset: 0x46EA0, size: 0x8, addend: 0x0, symName: __ZN10tinyformat6detail9FormatArg9toIntImplI7SafeIntIyN5hilti2rt7integer6detail16SafeIntExceptionEEEEiPKv, symObjAddr: 0x41A0, symBinAddr: 0x100004B50, symSize: 0x20 }
  - { offset: 0x46F15, size: 0x8, addend: 0x0, symName: __ZN10tinyformat6detail15formatTruncatedI7SafeIntIyN5hilti2rt7integer6detail16SafeIntExceptionEEEEvRNSt3__113basic_ostreamIcNS9_11char_traitsIcEEEERKT_i, symObjAddr: 0x41C0, symBinAddr: 0x100004B70, symSize: 0x200 }
  - { offset: 0x46F6E, size: 0x8, addend: 0x0, symName: __ZN5hilti2rt8OverflowC1ENSt3__117basic_string_viewIcNS2_11char_traitsIcEEEE, symObjAddr: 0x4414, symBinAddr: 0x100004DC4, symSize: 0x38 }
  - { offset: 0x470F2, size: 0x8, addend: 0x0, symName: __ZN10tinyformat6detail9FormatArg10formatImplIyEEvRNSt3__113basic_ostreamIcNS3_11char_traitsIcEEEEPKcSA_iPKv, symObjAddr: 0x4604, symBinAddr: 0x100004FB4, symSize: 0x60 }
  - { offset: 0x47206, size: 0x8, addend: 0x0, symName: __ZN10tinyformat6detail9FormatArg9toIntImplIyEEiPKv, symObjAddr: 0x4664, symBinAddr: 0x100005014, symSize: 0x8 }
  - { offset: 0x4722D, size: 0x8, addend: 0x0, symName: __ZN10tinyformat6detail9FormatArg9toIntImplIyEEiPKv, symObjAddr: 0x4664, symBinAddr: 0x100005014, symSize: 0x8 }
  - { offset: 0x47385, size: 0x8, addend: 0x0, symName: __ZNK5hilti2rt6vector13ConstIteratorIN11__hlt_bench9Benchmark5InnerENSt3__19allocatorIS5_EEEdeEv, symObjAddr: 0x4930, symBinAddr: 0x1000052E0, symSize: 0x1C4 }
  - { offset: 0x47724, size: 0x8, addend: 0x0, symName: __ZNSt3__115insert_iteratorIN5hilti2rt6VectorINS_12basic_stringIcNS_11char_traitsIcEENS_9allocatorIcEEEENS7_IS9_EEEEEaSB8ne180100EOS9_, symObjAddr: 0x4AF4, symBinAddr: 0x1000054A4, symSize: 0xD4 }
  - { offset: 0x47AF8, size: 0x8, addend: 0x0, symName: __ZNR5hilti2rt6VectorIN11__hlt_bench9Benchmark5InnerENSt3__19allocatorIS4_EEEixEy, symObjAddr: 0x4D04, symBinAddr: 0x1000056B4, symSize: 0xFC }
  - { offset: 0x47DF9, size: 0x8, addend: 0x0, symName: __ZN5hilti2rt6VectorINSt3__112basic_stringIcNS2_11char_traitsIcEENS2_9allocatorIcEEEENS6_IS8_EEE6insertENS0_6vector8IteratorIS8_S9_EERKS8_, symObjAddr: 0x4E00, symBinAddr: 0x1000057B0, symSize: 0x134 }
  - { offset: 0x481F2, size: 0x8, addend: 0x0, symName: __ZNSt3__16vectorINS_12basic_stringIcNS_11char_traitsIcEENS_9allocatorIcEEEENS4_IS6_EEE6insertENS_11__wrap_iterIPKS6_EERSA_, symObjAddr: 0x4F34, symBinAddr: 0x1000058E4, symSize: 0x340 }
  - { offset: 0x493F6, size: 0x8, addend: 0x0, symName: __ZNSt3__114__split_bufferINS_12basic_stringIcNS_11char_traitsIcEENS_9allocatorIcEEEERNS4_IS6_EEE9push_backB8ne180100ERKS6_, symObjAddr: 0x5274, symBinAddr: 0x100005C24, symSize: 0x220 }
  - { offset: 0x49BE6, size: 0x8, addend: 0x0, symName: __ZNSt3__114__split_bufferINS_12basic_stringIcNS_11char_traitsIcEENS_9allocatorIcEEEERNS4_IS6_EEED1Ev, symObjAddr: 0x5494, symBinAddr: 0x100005E44, symSize: 0x64 }
  - { offset: 0x49BF1, size: 0x8, addend: 0x0, symName: __ZNKSt3__16vectorINS_12basic_stringIcNS_11char_traitsIcEENS_9allocatorIcEEEENS4_IS6_EEE20__throw_length_errorB8ne180100Ev, symObjAddr: 0x54F8, symBinAddr: 0x100005EA8, symSize: 0x14 }
  - { offset: 0x49C1A, size: 0x8, addend: 0x0, symName: __ZNSt3__120__shared_ptr_emplaceIPN5hilti2rt6VectorIN11__hlt_bench9Benchmark5InnerENS_9allocatorIS6_EEEENS7_ISA_EEED1Ev, symObjAddr: 0x550C, symBinAddr: 0x100005EBC, symSize: 0x10 }
  - { offset: 0x49C25, size: 0x8, addend: 0x0, symName: __ZNSt3__114__split_bufferINS_12basic_stringIcNS_11char_traitsIcEENS_9allocatorIcEEEERNS4_IS6_EEED1Ev, symObjAddr: 0x5494, symBinAddr: 0x100005E44, symSize: 0x64 }
  - { offset: 0x49F82, size: 0x8, addend: 0x0, symName: __ZNSt3__120__shared_ptr_emplaceIPN5hilti2rt6VectorIN11__hlt_bench9Benchmark5InnerENS_9allocatorIS6_EEEENS7_ISA_EEED1Ev, symObjAddr: 0x550C, symBinAddr: 0x100005EBC, symSize: 0x10 }
  - { offset: 0x49FA4, size: 0x8, addend: 0x0, symName: __ZNSt3__120__shared_ptr_emplaceIPN5hilti2rt6VectorIN11__hlt_bench9Benchmark5InnerENS_9allocatorIS6_EEEENS7_ISA_EEED1Ev, symObjAddr: 0x550C, symBinAddr: 0x100005EBC, symSize: 0x10 }
  - { offset: 0x49FDA, size: 0x8, addend: 0x0, symName: __ZNSt3__120__shared_ptr_emplaceIPN5hilti2rt6VectorIN11__hlt_bench9Benchmark5InnerENS_9allocatorIS6_EEEENS7_ISA_EEED0Ev, symObjAddr: 0x551C, symBinAddr: 0x100005ECC, symSize: 0x20 }
  - { offset: 0x4A03D, size: 0x8, addend: 0x0, symName: __ZNSt3__120__shared_ptr_emplaceIPN5hilti2rt6VectorIN11__hlt_bench9Benchmark5InnerENS_9allocatorIS6_EEEENS7_ISA_EEE16__on_zero_sharedEv, symObjAddr: 0x553C, symBinAddr: 0x100005EEC, symSize: 0x4 }
  - { offset: 0x4A0BA, size: 0x8, addend: 0x0, symName: __ZNSt3__120__shared_ptr_emplaceIPN5hilti2rt6VectorIN11__hlt_bench9Benchmark5InnerENS_9allocatorIS6_EEEENS7_ISA_EEE21__on_zero_shared_weakEv, symObjAddr: 0x5540, symBinAddr: 0x100005EF0, symSize: 0x4 }
  - { offset: 0x4A0EE, size: 0x8, addend: 0x0, symName: __ZNSt3__120__shared_ptr_emplaceIPN5hilti2rt6VectorIN11__hlt_bench9Benchmark5InnerENS_9allocatorIS6_EEEENS7_ISA_EEE21__on_zero_shared_weakEv, symObjAddr: 0x5540, symBinAddr: 0x100005EF0, symSize: 0x4 }
  - { offset: 0x4A110, size: 0x8, addend: 0x0, symName: __ZNSt3__120__shared_ptr_emplaceIPN5hilti2rt6VectorIN11__hlt_bench9Benchmark5InnerENS_9allocatorIS6_EEEENS7_ISA_EEE21__on_zero_shared_weakEv, symObjAddr: 0x5540, symBinAddr: 0x100005EF0, symSize: 0x4 }
  - { offset: 0x4A132, size: 0x8, addend: 0x0, symName: __ZNSt3__120__shared_ptr_emplaceIPN5hilti2rt6VectorIN11__hlt_bench9Benchmark5InnerENS_9allocatorIS6_EEEENS7_ISA_EEE21__on_zero_shared_weakEv, symObjAddr: 0x5540, symBinAddr: 0x100005EF0, symSize: 0x4 }
  - { offset: 0x4A15D, size: 0x8, addend: 0x0, symName: __ZNSt3__120__shared_ptr_emplaceIPN5hilti2rt6VectorIN11__hlt_bench9Benchmark5InnerENS_9allocatorIS6_EEEENS7_ISA_EEE21__on_zero_shared_weakEv, symObjAddr: 0x5540, symBinAddr: 0x100005EF0, symSize: 0x4 }
  - { offset: 0x4A183, size: 0x8, addend: 0x0, symName: __ZNSt3__120__shared_ptr_emplaceIPN5hilti2rt6VectorIN11__hlt_bench9Benchmark5InnerENS_9allocatorIS6_EEEENS7_ISA_EEE21__on_zero_shared_weakEv, symObjAddr: 0x5540, symBinAddr: 0x100005EF0, symSize: 0x4 }
  - { offset: 0x4A1E1, size: 0x8, addend: 0x0, symName: '__ZN11__hlt_bench9type_info12_GLOBAL__N_13$_48__invokeEPKv', symObjAddr: 0x5544, symBinAddr: 0x100005EF4, symSize: 0x4 }
  - { offset: 0x4A206, size: 0x8, addend: 0x0, symName: '__ZN11__hlt_bench9type_info12_GLOBAL__N_13$_48__invokeEPKv', symObjAddr: 0x5544, symBinAddr: 0x100005EF4, symSize: 0x4 }
  - { offset: 0x4A221, size: 0x8, addend: 0x0, symName: '__ZN11__hlt_bench9type_info12_GLOBAL__N_13$_48__invokeEPKv', symObjAddr: 0x5544, symBinAddr: 0x100005EF4, symSize: 0x4 }
  - { offset: 0x4A23C, size: 0x8, addend: 0x0, symName: '__ZN11__hlt_bench9type_info12_GLOBAL__N_13$_48__invokeEPKv', symObjAddr: 0x5544, symBinAddr: 0x100005EF4, symSize: 0x4 }
  - { offset: 0x4A25B, size: 0x8, addend: 0x0, symName: '__ZN11__hlt_bench9type_info12_GLOBAL__N_13$_48__invokeEPKv', symObjAddr: 0x5544, symBinAddr: 0x100005EF4, symSize: 0x4 }
  - { offset: 0x4A275, size: 0x8, addend: 0x0, symName: __ZNK11__hlt_bench9Benchmark8WithUnit11__to_stringEv, symObjAddr: 0x5548, symBinAddr: 0x100005EF8, symSize: 0x494 }
  - { offset: 0x4C642, size: 0x8, addend: 0x0, symName: __ZNSt3__16vectorIN11__hlt_bench9Benchmark5InnerENS_9allocatorIS3_EEEC2ERKS6_, symObjAddr: 0x5C50, symBinAddr: 0x100006600, symSize: 0xB8 }
  - { offset: 0x4C8E2, size: 0x8, addend: 0x0, symName: __ZNSt3__124__optional_destruct_baseIN5hilti2rt6VectorIN11__hlt_bench9Benchmark5InnerENS_9allocatorIS6_EEEELb0EED2B8ne180100Ev, symObjAddr: 0x5E94, symBinAddr: 0x100006830, symSize: 0xB4 }
  - { offset: 0x4CF7B, size: 0x8, addend: 0x0, symName: __ZN5hilti2rt9to_stringIRKNSt3__18optionalINS0_5BytesEEEEENS2_12basic_stringIcNS2_11char_traitsIcEENS2_9allocatorIcEEEEOT_.cold.1, symObjAddr: 0x708C, symBinAddr: 0x100058328, symSize: 0x80 }
  - { offset: 0x4D1C3, size: 0x8, addend: 0x0, symName: __ZNSt3__18optionalIN5hilti2rt5BytesEED1Ev, symObjAddr: 0x5F48, symBinAddr: 0x1000068E4, symSize: 0x80 }
  - { offset: 0x4D5F4, size: 0x8, addend: 0x0, symName: __ZNSt3__135__uninitialized_allocator_copy_implB8ne180100INS_9allocatorIN11__hlt_bench9Benchmark5InnerEEEPS4_S6_S6_EET2_RT_T0_T1_S7_, symObjAddr: 0x5D1C, symBinAddr: 0x1000066B8, symSize: 0x10C }
  - { offset: 0x4D5FF, size: 0x8, addend: 0x0, symName: __ZNSt3__16vectorIN11__hlt_bench9Benchmark5InnerENS_9allocatorIS3_EEEC2ERKS6_.cold.1, symObjAddr: 0x710C, symBinAddr: 0x1000583A8, symSize: 0x6C }
  - { offset: 0x4DA3A, size: 0x8, addend: 0x0, symName: __ZNSt3__128__exception_guard_exceptionsINS_29_AllocatorDestroyRangeReverseINS_9allocatorIN11__hlt_bench9Benchmark5InnerEEEPS5_EEED1B8ne180100Ev, symObjAddr: 0x5E28, symBinAddr: 0x1000067C4, symSize: 0x6C }
  - { offset: 0x4DF80, size: 0x8, addend: 0x0, symName: __ZNSt3__110unique_ptrIN5hilti2rt6detail5FiberENS_14default_deleteIS4_EEED1B8ne180100Ev, symObjAddr: 0x60FC, symBinAddr: 0x100006A98, symSize: 0x34 }
  - { offset: 0x4E25A, size: 0x8, addend: 0x0, symName: __ZN5hilti2rt6stream6detail5ChunkD1Ev, symObjAddr: 0x61F8, symBinAddr: 0x100006B94, symSize: 0x3C }
  - { offset: 0x4E403, size: 0x8, addend: 0x0, symName: __ZNSt3__116__variant_detail12__visitation6__base12__dispatcherIJLm0EEE10__dispatchB8ne180100IOZNS0_6__dtorINS0_8__traitsIJNS_10shared_ptrIN5hilti2rt6StreamEEEPSB_EEELNS0_6_TraitE1EE9__destroyB8ne180100EvEUlRT_E_JRNS0_6__baseILSF_1EJSC_SD_EEEEEEDcSH_DpT0_, symObjAddr: 0x6234, symBinAddr: 0x100006BD0, symSize: 0x50 }
  - { offset: 0x4E543, size: 0x8, addend: 0x0, symName: __ZNSt3__116__variant_detail12__visitation6__base12__dispatcherIJLm1EEE10__dispatchB8ne180100IOZNS0_6__dtorINS0_8__traitsIJNS_10shared_ptrIN5hilti2rt6StreamEEEPSB_EEELNS0_6_TraitE1EE9__destroyB8ne180100EvEUlRT_E_JRNS0_6__baseILSF_1EJSC_SD_EEEEEEDcSH_DpT0_, symObjAddr: 0x6284, symBinAddr: 0x100006C20, symSize: 0x4 }
  - { offset: 0x4E603, size: 0x8, addend: 0x0, symName: __ZZN5hilti2rt8TypeInfoC1INS0_9type_info9ExceptionEEENSt3__18optionalIPKcEES8_PFNS5_12basic_stringIcNS5_11char_traitsIcEENS5_9allocatorIcEEEEPKvEPT_ENUlS8_E_8__invokeES8_, symObjAddr: 0x6288, symBinAddr: 0x100006C24, symSize: 0xC }
  - { offset: 0x4E62D, size: 0x8, addend: 0x0, symName: __ZZN5hilti2rt8TypeInfoC1INS0_9type_info9ExceptionEEENSt3__18optionalIPKcEES8_PFNS5_12basic_stringIcNS5_11char_traitsIcEENS5_9allocatorIcEEEEPKvEPT_ENUlS8_E_8__invokeES8_, symObjAddr: 0x6288, symBinAddr: 0x100006C24, symSize: 0xC }
  - { offset: 0x4E6A9, size: 0x8, addend: 0x0, symName: __ZZN5hilti2rt8TypeInfoC1INS0_9type_info8OptionalEEENSt3__18optionalIPKcEES8_PFNS5_12basic_stringIcNS5_11char_traitsIcEENS5_9allocatorIcEEEEPKvEPT_ENUlS8_E_8__invokeES8_, symObjAddr: 0x6294, symBinAddr: 0x100006C30, symSize: 0xC }
  - { offset: 0x4E6D3, size: 0x8, addend: 0x0, symName: __ZZN5hilti2rt8TypeInfoC1INS0_9type_info8OptionalEEENSt3__18optionalIPKcEES8_PFNS5_12basic_stringIcNS5_11char_traitsIcEENS5_9allocatorIcEEEEPKvEPT_ENUlS8_E_8__invokeES8_, symObjAddr: 0x6294, symBinAddr: 0x100006C30, symSize: 0xC }
  - { offset: 0x4E791, size: 0x8, addend: 0x0, symName: __ZZN5hilti2rt9type_info7struct_5Field17accessor_optionalI7SafeIntIhNS0_7integer6detail16SafeIntExceptionEEEEPFPKvRKNS1_5ValueEEvENUlSE_E_8__invokeESE_, symObjAddr: 0x62A0, symBinAddr: 0x100006C3C, symSize: 0x20 }
  - { offset: 0x4EB52, size: 0x8, addend: 0x0, symName: __ZNSt3__16vectorIN5hilti2rt9type_info7struct_5FieldENS_9allocatorIS5_EEEC2B8ne180100ESt16initializer_listIS5_E, symObjAddr: 0x62C0, symBinAddr: 0x100006C5C, symSize: 0x144 }
  - { offset: 0x4F0DE, size: 0x8, addend: 0x0, symName: __ZZN5hilti2rt8TypeInfoC1INS0_9type_info6StructEEENSt3__18optionalIPKcEES8_PFNS5_12basic_stringIcNS5_11char_traitsIcEENS5_9allocatorIcEEEEPKvEPT_ENUlS8_E_8__invokeES8_, symObjAddr: 0x64AC, symBinAddr: 0x100006E34, symSize: 0x78 }
  - { offset: 0x4F0E9, size: 0x8, addend: 0x0, symName: __ZNSt3__128__exception_guard_exceptionsINS_6vectorIN5hilti2rt9type_info7struct_5FieldENS_9allocatorIS6_EEE16__destroy_vectorEED1B8ne180100Ev, symObjAddr: 0x6404, symBinAddr: 0x100006DA0, symSize: 0x94 }
  - { offset: 0x4F533, size: 0x8, addend: 0x0, symName: __ZZN5hilti2rt8TypeInfoC1INS0_9type_info6StructEEENSt3__18optionalIPKcEES8_PFNS5_12basic_stringIcNS5_11char_traitsIcEENS5_9allocatorIcEEEEPKvEPT_ENUlS8_E_8__invokeES8_, symObjAddr: 0x64AC, symBinAddr: 0x100006E34, symSize: 0x78 }
  - { offset: 0x4F8C5, size: 0x8, addend: 0x0, symName: __ZZN5hilti2rt9type_info6Vector8accessorIN11__hlt_bench9Benchmark5InnerENSt3__19allocatorIS6_EEEENS7_5tupleIJPFNS7_8optionalIN4linb3anyEEERKNS1_5ValueEEPFSE_RKSD_EPFPKvSL_EEEEvENUlSH_E_8__invokeESH_, symObjAddr: 0x6524, symBinAddr: 0x100006EAC, symSize: 0x24 }
  - { offset: 0x4F911, size: 0x8, addend: 0x0, symName: __ZZN5hilti2rt9type_info6Vector8accessorIN11__hlt_bench9Benchmark5InnerENSt3__19allocatorIS6_EEEENS7_5tupleIJPFNS7_8optionalIN4linb3anyEEERKNS1_5ValueEEPFSE_RKSD_EPFPKvSL_EEEEvENKUlSH_E_clESH_, symObjAddr: 0x6548, symBinAddr: 0x100006ED0, symSize: 0x328 }
  - { offset: 0x51414, size: 0x8, addend: 0x0, symName: __ZNSt3__14pairIN5hilti2rt6vector13ConstIteratorIN11__hlt_bench9Benchmark5InnerENS_9allocatorIS7_EEEESA_ED1Ev, symObjAddr: 0x6870, symBinAddr: 0x1000071F8, symSize: 0x38 }
  - { offset: 0x51558, size: 0x8, addend: 0x0, symName: __ZN4linb3any14vtable_dynamicINSt3__14pairIN5hilti2rt6vector13ConstIteratorIN11__hlt_bench9Benchmark5InnerENS2_9allocatorISA_EEEESD_EEE4typeEv, symObjAddr: 0x68A8, symBinAddr: 0x100007230, symSize: 0xC }
  - { offset: 0x51588, size: 0x8, addend: 0x0, symName: __ZN4linb3any14vtable_dynamicINSt3__14pairIN5hilti2rt6vector13ConstIteratorIN11__hlt_bench9Benchmark5InnerENS2_9allocatorISA_EEEESD_EEE7destroyERNS0_13storage_unionE, symObjAddr: 0x68B4, symBinAddr: 0x10000723C, symSize: 0x48 }
  - { offset: 0x517A4, size: 0x8, addend: 0x0, symName: __ZN4linb3any14vtable_dynamicINSt3__14pairIN5hilti2rt6vector13ConstIteratorIN11__hlt_bench9Benchmark5InnerENS2_9allocatorISA_EEEESD_EEE4copyERKNS0_13storage_unionERSG_, symObjAddr: 0x68FC, symBinAddr: 0x100007284, symSize: 0x70 }
  - { offset: 0x519C4, size: 0x8, addend: 0x0, symName: __ZN4linb3any14vtable_dynamicINSt3__14pairIN5hilti2rt6vector13ConstIteratorIN11__hlt_bench9Benchmark5InnerENS2_9allocatorISA_EEEESD_EEE4moveERNS0_13storage_unionESH_, symObjAddr: 0x696C, symBinAddr: 0x1000072F4, symSize: 0x10 }
  - { offset: 0x519F7, size: 0x8, addend: 0x0, symName: __ZN4linb3any14vtable_dynamicINSt3__14pairIN5hilti2rt6vector13ConstIteratorIN11__hlt_bench9Benchmark5InnerENS2_9allocatorISA_EEEESD_EEE4swapERNS0_13storage_unionESH_, symObjAddr: 0x697C, symBinAddr: 0x100007304, symSize: 0x14 }
  - { offset: 0x51A2C, size: 0x8, addend: 0x0, symName: __ZN4linb3any14vtable_dynamicINSt3__14pairIN5hilti2rt6vector13ConstIteratorIN11__hlt_bench9Benchmark5InnerENS2_9allocatorISA_EEEESD_EEE4swapERNS0_13storage_unionESH_, symObjAddr: 0x697C, symBinAddr: 0x100007304, symSize: 0x14 }
  - { offset: 0x51A63, size: 0x8, addend: 0x0, symName: __ZZN5hilti2rt9type_info6Vector8accessorIN11__hlt_bench9Benchmark5InnerENSt3__19allocatorIS6_EEEENS7_5tupleIJPFNS7_8optionalIN4linb3anyEEERKNS1_5ValueEEPFSE_RKSD_EPFPKvSL_EEEEvENUlSL_E_8__invokeESL_, symObjAddr: 0x6990, symBinAddr: 0x100007318, symSize: 0x24 }
  - { offset: 0x51AAF, size: 0x8, addend: 0x0, symName: __ZZN5hilti2rt9type_info6Vector8accessorIN11__hlt_bench9Benchmark5InnerENSt3__19allocatorIS6_EEEENS7_5tupleIJPFNS7_8optionalIN4linb3anyEEERKNS1_5ValueEEPFSE_RKSD_EPFPKvSL_EEEEvENKUlSL_E_clESL_, symObjAddr: 0x69B4, symBinAddr: 0x10000733C, symSize: 0x20C }
  - { offset: 0x528E2, size: 0x8, addend: 0x0, symName: __ZN4linb12bad_any_castC1Ev, symObjAddr: 0x6BC0, symBinAddr: 0x100007548, symSize: 0x20 }
  - { offset: 0x52967, size: 0x8, addend: 0x0, symName: __ZN4linb12bad_any_castD1Ev, symObjAddr: 0x6BE0, symBinAddr: 0x100007568, symSize: 0x4 }
  - { offset: 0x52989, size: 0x8, addend: 0x0, symName: __ZN4linb12bad_any_castD1Ev, symObjAddr: 0x6BE0, symBinAddr: 0x100007568, symSize: 0x4 }
  - { offset: 0x529BF, size: 0x8, addend: 0x0, symName: __ZN4linb12bad_any_castD0Ev, symObjAddr: 0x6BE4, symBinAddr: 0x10000756C, symSize: 0x14 }
  - { offset: 0x52A22, size: 0x8, addend: 0x0, symName: __ZNK4linb12bad_any_cast4whatEv, symObjAddr: 0x6BF8, symBinAddr: 0x100007580, symSize: 0xC }
  - { offset: 0x52A55, size: 0x8, addend: 0x0, symName: __ZZN5hilti2rt9type_info6Vector8accessorIN11__hlt_bench9Benchmark5InnerENSt3__19allocatorIS6_EEEENS7_5tupleIJPFNS7_8optionalIN4linb3anyEEERKNS1_5ValueEEPFSE_RKSD_EPFPKvSL_EEEEvENUlSL_E0_8__invokeESL_, symObjAddr: 0x6C04, symBinAddr: 0x10000758C, symSize: 0x24 }
  - { offset: 0x52A9A, size: 0x8, addend: 0x0, symName: __ZZN5hilti2rt9type_info6Vector8accessorIN11__hlt_bench9Benchmark5InnerENSt3__19allocatorIS6_EEEENS7_5tupleIJPFNS7_8optionalIN4linb3anyEEERKNS1_5ValueEEPFSE_RKSD_EPFPKvSL_EEEEvENKUlSL_E0_clESL_, symObjAddr: 0x6C28, symBinAddr: 0x1000075B0, symSize: 0x128 }
  - { offset: 0x52FA7, size: 0x8, addend: 0x0, symName: __ZZN5hilti2rt8TypeInfoC1INS0_9type_info6VectorEEENSt3__18optionalIPKcEES8_PFNS5_12basic_stringIcNS5_11char_traitsIcEENS5_9allocatorIcEEEEPKvEPT_ENUlS8_E_8__invokeES8_, symObjAddr: 0x6D50, symBinAddr: 0x1000076D8, symSize: 0xC }
  - { offset: 0x52FD1, size: 0x8, addend: 0x0, symName: __ZZN5hilti2rt8TypeInfoC1INS0_9type_info6VectorEEENSt3__18optionalIPKcEES8_PFNS5_12basic_stringIcNS5_11char_traitsIcEENS5_9allocatorIcEEEEPKvEPT_ENUlS8_E_8__invokeES8_, symObjAddr: 0x6D50, symBinAddr: 0x1000076D8, symSize: 0xC }
  - { offset: 0x5308F, size: 0x8, addend: 0x0, symName: __ZZN5hilti2rt9type_info7struct_5Field17accessor_optionalI7SafeIntIyNS0_7integer6detail16SafeIntExceptionEEEEPFPKvRKNS1_5ValueEEvENUlSE_E_8__invokeESE_, symObjAddr: 0x6D5C, symBinAddr: 0x1000076E4, symSize: 0x20 }
  - { offset: 0x5319A, size: 0x8, addend: 0x0, symName: __ZZN5hilti2rt9type_info7struct_5Field17accessor_optionalINS0_6VectorIN11__hlt_bench9Benchmark5InnerENSt3__19allocatorIS8_EEEEEEPFPKvRKNS1_5ValueEEvENUlSH_E_8__invokeESH_, symObjAddr: 0x6D7C, symBinAddr: 0x100007704, symSize: 0x20 }
  - { offset: 0x532A5, size: 0x8, addend: 0x0, symName: __ZZN5hilti2rt9type_info7struct_5Field17accessor_optionalINS0_5BytesEEEPFPKvRKNS1_5ValueEEvENUlSA_E_8__invokeESA_, symObjAddr: 0x6D9C, symBinAddr: 0x100007724, symSize: 0x20 }
  - { offset: 0x53345, size: 0x8, addend: 0x0, symName: __ZNSt3__120__shared_ptr_emplaceIN5hilti2rt6StreamENS_9allocatorIS3_EEED1Ev, symObjAddr: 0x6DBC, symBinAddr: 0x100007744, symSize: 0x10 }
  - { offset: 0x53367, size: 0x8, addend: 0x0, symName: __ZNSt3__120__shared_ptr_emplaceIN5hilti2rt6StreamENS_9allocatorIS3_EEED1Ev, symObjAddr: 0x6DBC, symBinAddr: 0x100007744, symSize: 0x10 }
  - { offset: 0x5339D, size: 0x8, addend: 0x0, symName: __ZNSt3__120__shared_ptr_emplaceIN5hilti2rt6StreamENS_9allocatorIS3_EEED0Ev, symObjAddr: 0x6DCC, symBinAddr: 0x100007754, symSize: 0x20 }
  - { offset: 0x534A1, size: 0x8, addend: 0x0, symName: __ZNSt3__120__shared_ptr_emplaceIN5hilti2rt6StreamENS_9allocatorIS3_EEE16__on_zero_sharedEv, symObjAddr: 0x6DEC, symBinAddr: 0x100007774, symSize: 0x8 }
  - { offset: 0x534CA, size: 0x8, addend: 0x0, symName: __ZNSt3__120__shared_ptr_emplaceIN5hilti2rt6StreamENS_9allocatorIS3_EEE16__on_zero_sharedEv, symObjAddr: 0x6DEC, symBinAddr: 0x100007774, symSize: 0x8 }
  - { offset: 0x534E8, size: 0x8, addend: 0x0, symName: __ZNSt3__120__shared_ptr_emplaceIN5hilti2rt6StreamENS_9allocatorIS3_EEE16__on_zero_sharedEv, symObjAddr: 0x6DEC, symBinAddr: 0x100007774, symSize: 0x8 }
  - { offset: 0x535C0, size: 0x8, addend: 0x0, symName: __ZNSt3__120__shared_ptr_emplaceIN5hilti2rt6StreamENS_9allocatorIS3_EEE21__on_zero_shared_weakEv, symObjAddr: 0x6DF4, symBinAddr: 0x10000777C, symSize: 0x4 }
  - { offset: 0x535F4, size: 0x8, addend: 0x0, symName: __ZNSt3__120__shared_ptr_emplaceIN5hilti2rt6StreamENS_9allocatorIS3_EEE21__on_zero_shared_weakEv, symObjAddr: 0x6DF4, symBinAddr: 0x10000777C, symSize: 0x4 }
  - { offset: 0x53616, size: 0x8, addend: 0x0, symName: __ZNSt3__120__shared_ptr_emplaceIN5hilti2rt6StreamENS_9allocatorIS3_EEE21__on_zero_shared_weakEv, symObjAddr: 0x6DF4, symBinAddr: 0x10000777C, symSize: 0x4 }
  - { offset: 0x53638, size: 0x8, addend: 0x0, symName: __ZNSt3__120__shared_ptr_emplaceIN5hilti2rt6StreamENS_9allocatorIS3_EEE21__on_zero_shared_weakEv, symObjAddr: 0x6DF4, symBinAddr: 0x10000777C, symSize: 0x4 }
  - { offset: 0x53663, size: 0x8, addend: 0x0, symName: __ZNSt3__120__shared_ptr_emplaceIN5hilti2rt6StreamENS_9allocatorIS3_EEE21__on_zero_shared_weakEv, symObjAddr: 0x6DF4, symBinAddr: 0x10000777C, symSize: 0x4 }
  - { offset: 0x53689, size: 0x8, addend: 0x0, symName: __ZNSt3__120__shared_ptr_emplaceIN5hilti2rt6StreamENS_9allocatorIS3_EEE21__on_zero_shared_weakEv, symObjAddr: 0x6DF4, symBinAddr: 0x10000777C, symSize: 0x4 }
  - { offset: 0x53939, size: 0x8, addend: 0x0, symName: __ZNSt3__117bad_function_callD1Ev, symObjAddr: 0x6F90, symBinAddr: 0x100007918, symSize: 0x4 }
  - { offset: 0x5395B, size: 0x8, addend: 0x0, symName: __ZNSt3__117bad_function_callD1Ev, symObjAddr: 0x6F90, symBinAddr: 0x100007918, symSize: 0x4 }
  - { offset: 0x5398F, size: 0x8, addend: 0x0, symName: __ZNSt3__117bad_function_callD0Ev, symObjAddr: 0x6F94, symBinAddr: 0x10000791C, symSize: 0x14 }
  - { offset: 0x539F0, size: 0x8, addend: 0x0, symName: __ZNSt3__110__function6__funcIPFN5hilti2rt9ResumableERNS3_14ValueReferenceINS3_6StreamEEERKNS_8optionalINS3_6stream4ViewEEERKNS9_IN5spicy2rt11UnitContextEEEENS_9allocatorISM_EESL_ED1Ev, symObjAddr: 0x6FA8, symBinAddr: 0x100007930, symSize: 0x4 }
  - { offset: 0x53A1B, size: 0x8, addend: 0x0, symName: __ZNSt3__110__function6__funcIPFN5hilti2rt9ResumableERNS3_14ValueReferenceINS3_6StreamEEERKNS_8optionalINS3_6stream4ViewEEERKNS9_IN5spicy2rt11UnitContextEEEENS_9allocatorISM_EESL_ED0Ev, symObjAddr: 0x6FAC, symBinAddr: 0x100007934, symSize: 0x4 }
  - { offset: 0x53C1D, size: 0x8, addend: 0x0, symName: __ZNKSt3__110__function6__funcIPFN5hilti2rt9ResumableERNS3_14ValueReferenceINS3_6StreamEEERKNS_8optionalINS3_6stream4ViewEEERKNS9_IN5spicy2rt11UnitContextEEEENS_9allocatorISM_EESL_E7__cloneEv, symObjAddr: 0x6FB0, symBinAddr: 0x100007938, symSize: 0x34 }
  - { offset: 0x53F11, size: 0x8, addend: 0x0, symName: __ZNKSt3__110__function6__funcIPFN5hilti2rt9ResumableERNS3_14ValueReferenceINS3_6StreamEEERKNS_8optionalINS3_6stream4ViewEEERKNS9_IN5spicy2rt11UnitContextEEEENS_9allocatorISM_EESL_E7__cloneEPNS0_6__baseISL_EE, symObjAddr: 0x6FE4, symBinAddr: 0x10000796C, symSize: 0x14 }
  - { offset: 0x53F49, size: 0x8, addend: 0x0, symName: __ZNKSt3__110__function6__funcIPFN5hilti2rt9ResumableERNS3_14ValueReferenceINS3_6StreamEEERKNS_8optionalINS3_6stream4ViewEEERKNS9_IN5spicy2rt11UnitContextEEEENS_9allocatorISM_EESL_E7__cloneEPNS0_6__baseISL_EE, symObjAddr: 0x6FE4, symBinAddr: 0x10000796C, symSize: 0x14 }
  - { offset: 0x53F77, size: 0x8, addend: 0x0, symName: __ZNKSt3__110__function6__funcIPFN5hilti2rt9ResumableERNS3_14ValueReferenceINS3_6StreamEEERKNS_8optionalINS3_6stream4ViewEEERKNS9_IN5spicy2rt11UnitContextEEEENS_9allocatorISM_EESL_E7__cloneEPNS0_6__baseISL_EE, symObjAddr: 0x6FE4, symBinAddr: 0x10000796C, symSize: 0x14 }
  - { offset: 0x53FA5, size: 0x8, addend: 0x0, symName: __ZNKSt3__110__function6__funcIPFN5hilti2rt9ResumableERNS3_14ValueReferenceINS3_6StreamEEERKNS_8optionalINS3_6stream4ViewEEERKNS9_IN5spicy2rt11UnitContextEEEENS_9allocatorISM_EESL_E7__cloneEPNS0_6__baseISL_EE, symObjAddr: 0x6FE4, symBinAddr: 0x10000796C, symSize: 0x14 }
  - { offset: 0x53FBA, size: 0x8, addend: 0x0, symName: __ZNKSt3__110__function6__funcIPFN5hilti2rt9ResumableERNS3_14ValueReferenceINS3_6StreamEEERKNS_8optionalINS3_6stream4ViewEEERKNS9_IN5spicy2rt11UnitContextEEEENS_9allocatorISM_EESL_E7__cloneEPNS0_6__baseISL_EE, symObjAddr: 0x6FE4, symBinAddr: 0x10000796C, symSize: 0x14 }
  - { offset: 0x53FCE, size: 0x8, addend: 0x0, symName: __ZNKSt3__110__function6__funcIPFN5hilti2rt9ResumableERNS3_14ValueReferenceINS3_6StreamEEERKNS_8optionalINS3_6stream4ViewEEERKNS9_IN5spicy2rt11UnitContextEEEENS_9allocatorISM_EESL_E7__cloneEPNS0_6__baseISL_EE, symObjAddr: 0x6FE4, symBinAddr: 0x10000796C, symSize: 0x14 }
  - { offset: 0x53FE2, size: 0x8, addend: 0x0, symName: __ZNKSt3__110__function6__funcIPFN5hilti2rt9ResumableERNS3_14ValueReferenceINS3_6StreamEEERKNS_8optionalINS3_6stream4ViewEEERKNS9_IN5spicy2rt11UnitContextEEEENS_9allocatorISM_EESL_E7__cloneEPNS0_6__baseISL_EE, symObjAddr: 0x6FE4, symBinAddr: 0x10000796C, symSize: 0x14 }
  - { offset: 0x53FF7, size: 0x8, addend: 0x0, symName: __ZNKSt3__110__function6__funcIPFN5hilti2rt9ResumableERNS3_14ValueReferenceINS3_6StreamEEERKNS_8optionalINS3_6stream4ViewEEERKNS9_IN5spicy2rt11UnitContextEEEENS_9allocatorISM_EESL_E7__cloneEPNS0_6__baseISL_EE, symObjAddr: 0x6FE4, symBinAddr: 0x10000796C, symSize: 0x14 }
  - { offset: 0x5400F, size: 0x8, addend: 0x0, symName: __ZNSt3__110__function6__funcIPFN5hilti2rt9ResumableERNS3_14ValueReferenceINS3_6StreamEEERKNS_8optionalINS3_6stream4ViewEEERKNS9_IN5spicy2rt11UnitContextEEEENS_9allocatorISM_EESL_E7destroyEv, symObjAddr: 0x6FF8, symBinAddr: 0x100007980, symSize: 0x4 }
  - { offset: 0x54062, size: 0x8, addend: 0x0, symName: __ZNSt3__110__function6__funcIPFN5hilti2rt9ResumableERNS3_14ValueReferenceINS3_6StreamEEERKNS_8optionalINS3_6stream4ViewEEERKNS9_IN5spicy2rt11UnitContextEEEENS_9allocatorISM_EESL_E18destroy_deallocateEv, symObjAddr: 0x6FFC, symBinAddr: 0x100007984, symSize: 0x4 }
  - { offset: 0x54098, size: 0x8, addend: 0x0, symName: __ZNSt3__110__function6__funcIPFN5hilti2rt9ResumableERNS3_14ValueReferenceINS3_6StreamEEERKNS_8optionalINS3_6stream4ViewEEERKNS9_IN5spicy2rt11UnitContextEEEENS_9allocatorISM_EESL_E18destroy_deallocateEv, symObjAddr: 0x6FFC, symBinAddr: 0x100007984, symSize: 0x4 }
  - { offset: 0x540BA, size: 0x8, addend: 0x0, symName: __ZNSt3__110__function6__funcIPFN5hilti2rt9ResumableERNS3_14ValueReferenceINS3_6StreamEEERKNS_8optionalINS3_6stream4ViewEEERKNS9_IN5spicy2rt11UnitContextEEEENS_9allocatorISM_EESL_E18destroy_deallocateEv, symObjAddr: 0x6FFC, symBinAddr: 0x100007984, symSize: 0x4 }
  - { offset: 0x540E5, size: 0x8, addend: 0x0, symName: __ZNSt3__110__function6__funcIPFN5hilti2rt9ResumableERNS3_14ValueReferenceINS3_6StreamEEERKNS_8optionalINS3_6stream4ViewEEERKNS9_IN5spicy2rt11UnitContextEEEENS_9allocatorISM_EESL_E18destroy_deallocateEv, symObjAddr: 0x6FFC, symBinAddr: 0x100007984, symSize: 0x4 }
  - { offset: 0x5410B, size: 0x8, addend: 0x0, symName: __ZNSt3__110__function6__funcIPFN5hilti2rt9ResumableERNS3_14ValueReferenceINS3_6StreamEEERKNS_8optionalINS3_6stream4ViewEEERKNS9_IN5spicy2rt11UnitContextEEEENS_9allocatorISM_EESL_E18destroy_deallocateEv, symObjAddr: 0x6FFC, symBinAddr: 0x100007984, symSize: 0x4 }
  - { offset: 0x541BE, size: 0x8, addend: 0x0, symName: __ZNSt3__110__function6__funcIPFN5hilti2rt9ResumableERNS3_14ValueReferenceINS3_6StreamEEERKNS_8optionalINS3_6stream4ViewEEERKNS9_IN5spicy2rt11UnitContextEEEENS_9allocatorISM_EESL_EclES8_SE_SK_, symObjAddr: 0x7000, symBinAddr: 0x100007988, symSize: 0x14 }
  - { offset: 0x54219, size: 0x8, addend: 0x0, symName: __ZNSt3__110__function6__funcIPFN5hilti2rt9ResumableERNS3_14ValueReferenceINS3_6StreamEEERKNS_8optionalINS3_6stream4ViewEEERKNS9_IN5spicy2rt11UnitContextEEEENS_9allocatorISM_EESL_EclES8_SE_SK_, symObjAddr: 0x7000, symBinAddr: 0x100007988, symSize: 0x14 }
  - { offset: 0x54250, size: 0x8, addend: 0x0, symName: __ZNSt3__110__function6__funcIPFN5hilti2rt9ResumableERNS3_14ValueReferenceINS3_6StreamEEERKNS_8optionalINS3_6stream4ViewEEERKNS9_IN5spicy2rt11UnitContextEEEENS_9allocatorISM_EESL_EclES8_SE_SK_, symObjAddr: 0x7000, symBinAddr: 0x100007988, symSize: 0x14 }
  - { offset: 0x54286, size: 0x8, addend: 0x0, symName: __ZNSt3__110__function6__funcIPFN5hilti2rt9ResumableERNS3_14ValueReferenceINS3_6StreamEEERKNS_8optionalINS3_6stream4ViewEEERKNS9_IN5spicy2rt11UnitContextEEEENS_9allocatorISM_EESL_EclES8_SE_SK_, symObjAddr: 0x7000, symBinAddr: 0x100007988, symSize: 0x14 }
  - { offset: 0x542E7, size: 0x8, addend: 0x0, symName: __ZNKSt3__110__function6__funcIPFN5hilti2rt9ResumableERNS3_14ValueReferenceINS3_6StreamEEERKNS_8optionalINS3_6stream4ViewEEERKNS9_IN5spicy2rt11UnitContextEEEENS_9allocatorISM_EESL_E6targetERKSt9type_info, symObjAddr: 0x7014, symBinAddr: 0x10000799C, symSize: 0x6C }
  - { offset: 0x54380, size: 0x8, addend: 0x0, symName: __ZNKSt3__110__function6__funcIPFN5hilti2rt9ResumableERNS3_14ValueReferenceINS3_6StreamEEERKNS_8optionalINS3_6stream4ViewEEERKNS9_IN5spicy2rt11UnitContextEEEENS_9allocatorISM_EESL_E11target_typeEv, symObjAddr: 0x7080, symBinAddr: 0x100007A08, symSize: 0xC }
  - { offset: 0x544FA, size: 0x8, addend: 0x0, symName: ___hlt_hlto_library_version, symObjAddr: 0x80, symBinAddr: 0x1000BC170, symSize: 0x0 }
  - { offset: 0x54516, size: 0x8, addend: 0x0, symName: ___hlt_hlto_bind_to_version, symObjAddr: 0x88, symBinAddr: 0x1000BC178, symSize: 0x0 }
  - { offset: 0x5452C, size: 0x8, addend: 0x0, symName: ___hlt_bench_hlto_scope, symObjAddr: 0x98, symBinAddr: 0x1000BC188, symSize: 0x0 }
  - { offset: 0x548E3, size: 0x8, addend: 0x0, symName: __MergedGlobals, symObjAddr: 0x307228, symBinAddr: 0x1000BC488, symSize: 0x0 }
  - { offset: 0x548F1, size: 0x8, addend: 0x0, symName: __ZN11__hlt_bench9Benchmark17__register_moduleEv, symObjAddr: 0x2A0, symBinAddr: 0x100008204, symSize: 0x48 }
  - { offset: 0x5491A, size: 0x8, addend: 0x0, symName: __ZN11__hlt_bench9Benchmark13__init_moduleEv, symObjAddr: 0x5620, symBinAddr: 0x10000D524, symSize: 0x14 }
  - { offset: 0x54951, size: 0x8, addend: 0x0, symName: __ZN11__hlt_bench9Benchmark26__register_Benchmark_InnerEv, symObjAddr: 0x5634, symBinAddr: 0x10000D538, symSize: 0xB8 }
  - { offset: 0x54A16, size: 0x8, addend: 0x0, symName: __ZN11__hlt_bench9Benchmark29__register_Benchmark_WithUnitEv, symObjAddr: 0x56EC, symBinAddr: 0x10000D5F0, symSize: 0x3F8 }
  - { offset: 0x55F53, size: 0x8, addend: 0x0, symName: __ZN11__hlt_bench9BenchmarklsERNSt3__113basic_ostreamIcNS1_11char_traitsIcEEEERKNS0_5InnerE, symObjAddr: 0x71D8, symBinAddr: 0x10000F07C, symSize: 0x9C }
  - { offset: 0x562B5, size: 0x8, addend: 0x0, symName: __ZN11__hlt_bench9BenchmarklsERNSt3__113basic_ostreamIcNS1_11char_traitsIcEEEERKNS0_8WithUnitE, symObjAddr: 0x7274, symBinAddr: 0x10000F118, symSize: 0x9C }
  - { offset: 0x56638, size: 0x8, addend: 0x0, symName: __MergedGlobals, symObjAddr: 0x307228, symBinAddr: 0x1000BC488, symSize: 0x0 }
  - { offset: 0x56653, size: 0x8, addend: 0x0, symName: __MergedGlobals, symObjAddr: 0x307228, symBinAddr: 0x1000BC488, symSize: 0x0 }
  - { offset: 0x5666E, size: 0x8, addend: 0x0, symName: __MergedGlobals, symObjAddr: 0x307228, symBinAddr: 0x1000BC488, symSize: 0x0 }
  - { offset: 0x5668A, size: 0x8, addend: 0x0, symName: __MergedGlobals, symObjAddr: 0x307228, symBinAddr: 0x1000BC488, symSize: 0x0 }
  - { offset: 0x566A6, size: 0x8, addend: 0x0, symName: __MergedGlobals, symObjAddr: 0x307228, symBinAddr: 0x1000BC488, symSize: 0x0 }
  - { offset: 0x56852, size: 0x8, addend: 0x0, symName: __ZN5hilti2rt7integer6unpackIhNS0_6stream4ViewEEENS0_6ResultINSt3__15tupleIJ7SafeIntIT_NS1_6detail16SafeIntExceptionEET0_EEEEESD_NS0_9ByteOrderE, symObjAddr: 0x82C, symBinAddr: 0x100008790, symSize: 0x2A4 }
  - { offset: 0x5811C, size: 0x8, addend: 0x0, symName: __ZN5hilti2rt7integer6unpackIyNS0_6stream4ViewEEENS0_6ResultINSt3__15tupleIJ7SafeIntIT_NS1_6detail16SafeIntExceptionEET0_EEEEESD_NS0_9ByteOrderE, symObjAddr: 0x1FB8, symBinAddr: 0x100009EBC, symSize: 0x468 }
  - { offset: 0x608BE, size: 0x8, addend: 0x0, symName: __ZN5hilti2rt5debug6dedentENSt3__117basic_string_viewIcNS2_11char_traitsIcEEEE, symObjAddr: 0xBF0, symBinAddr: 0x100008B54, symSize: 0x108 }
  - { offset: 0x61381, size: 0x8, addend: 0x0, symName: __ZN5hilti2rt9reference10make_valueIN11__hlt_bench9Benchmark8WithUnitEJS5_EEENS0_14ValueReferenceIT_EEDpOT0_, symObjAddr: 0x42C4, symBinAddr: 0x10000C1C8, symSize: 0x168 }
  - { offset: 0x8C04D, size: 0x8, addend: 0x0, symName: __ZNSt3__127__memberwise_forward_assignB8ne180100INS_5tupleIJN5hilti2rt6stream4ViewE7SafeIntIxNS3_7integer6detail16SafeIntExceptionEENS4_17SafeConstIteratorENS_8optionalINS3_18RecoverableFailureEEEEEESF_JS5_SA_SB_SE_EJLm0ELm1ELm2ELm3EEEEvRT_OT0_NS_13__tuple_typesIJDpT1_EEENS_15__tuple_indicesIJXspT2_EEEE, symObjAddr: 0xF504, symBinAddr: 0x100011288, symSize: 0x110 }
  - { offset: 0x8C929, size: 0x8, addend: 0x0, symName: __ZNSt3__126__throw_bad_variant_accessB8ne180100Ev, symObjAddr: 0xF460, symBinAddr: 0x1000111E4, symSize: 0x34 }
  - { offset: 0x956F3, size: 0x8, addend: 0x0, symName: __ZNSt3__127__memberwise_forward_assignB8ne180100INS_5tupleIJRN5hilti2rt6stream4ViewER7SafeIntIxNS3_7integer6detail16SafeIntExceptionEERNS4_17SafeConstIteratorERNS_8optionalINS3_18RecoverableFailureEEEEEENS1_IJS5_SB_SD_SH_EEEJS5_SB_SD_SH_EJLm0ELm1ELm2ELm3EEEEvRT_OT0_NS_13__tuple_typesIJDpT1_EEENS_15__tuple_indicesIJXspT2_EEEE, symObjAddr: 0xF734, symBinAddr: 0x1000114B8, symSize: 0x124 }
  - { offset: 0x96341, size: 0x8, addend: 0x0, symName: __ZNSt3__115allocate_sharedB8ne180100IN11__hlt_bench9Benchmark8WithUnitENS_9allocatorIS3_EEJS3_EvEENS_10shared_ptrIT_EERKT0_DpOT1_, symObjAddr: 0x10068, symBinAddr: 0x100011DEC, symSize: 0xFC }
  - { offset: 0x9C070, size: 0x8, addend: 0x0, symName: __ZNSt3__142__uninitialized_allocator_move_if_noexceptB8ne180100INS_9allocatorIN11__hlt_bench9Benchmark5InnerEEENS_16reverse_iteratorIPS4_EES8_S8_EET2_RT_T0_T1_S9_, symObjAddr: 0xFD9C, symBinAddr: 0x100011B20, symSize: 0x11C }
  - { offset: 0x9CAB2, size: 0x8, addend: 0x0, symName: __ZNSt3__120__throw_bad_weak_ptrB8ne180100Ev, symObjAddr: 0x103F8, symBinAddr: 0x10001217C, symSize: 0x34 }
  - { offset: 0x9CD09, size: 0x8, addend: 0x0, symName: __ZNSt3__135__uninitialized_allocator_copy_implB8ne180100INS_9allocatorIN5spicy2rt8MIMETypeEEEPKS4_S7_PS4_EET2_RT_T0_T1_S9_, symObjAddr: 0x105AC, symBinAddr: 0x10001231C, symSize: 0x100 }
  - { offset: 0x9FF68, size: 0x8, addend: 0x0, symName: __ZN5spicy2rt6detail14registerParserIN5hilti2rt15StrongReferenceIN11__hlt_bench9Benchmark8WithUnitEEEEEvRNS0_6ParserENSt3__112basic_stringIcNSC_11char_traitsIcEENSC_9allocatorIcEEEET_, symObjAddr: 0x6FA8, symBinAddr: 0x10000EEAC, symSize: 0x1D0 }
  - { offset: 0xA208E, size: 0x8, addend: 0x0, symName: __ZN9hlt_bench9Benchmark8WithUnit6parse1ERN5hilti2rt14ValueReferenceINS3_6StreamEEERKNSt3__18optionalINS3_6stream4ViewEEERKNS9_IN5spicy2rt11UnitContextEEE, symObjAddr: 0x5AE4, symBinAddr: 0x10000D9E8, symSize: 0x5F8 }
  - { offset: 0xA5710, size: 0x8, addend: 0x0, symName: __ZN9hlt_bench9Benchmark8WithUnit6parse2ERN5hilti2rt14ValueReferenceIN11__hlt_bench9Benchmark8WithUnitEEERNS4_INS3_6StreamEEERKNSt3__18optionalINS3_6stream4ViewEEERKNSE_IN5spicy2rt11UnitContextEEE, symObjAddr: 0x60DC, symBinAddr: 0x10000DFE0, symSize: 0x560 }
  - { offset: 0xA8D06, size: 0x8, addend: 0x0, symName: __ZN9hlt_bench9Benchmark8WithUnit6parse3ERN5hilti2rt14ValueReferenceIN5spicy2rt10ParsedUnitEEERNS4_INS3_6StreamEEERKNSt3__18optionalINS3_6stream4ViewEEERKNSE_INS6_11UnitContextEEE, symObjAddr: 0x663C, symBinAddr: 0x10000E540, symSize: 0x560 }
  - { offset: 0xAE40A, size: 0x8, addend: 0x0, symName: __ZN10tinyformat6formatIJ7SafeIntIyN5hilti2rt7integer6detail16SafeIntExceptionEES7_EEENSt3__112basic_stringIcNS8_11char_traitsIcEENS8_9allocatorIcEEEEPKcDpRKT_, symObjAddr: 0xF858, symBinAddr: 0x1000115DC, symSize: 0x1C0 }
  - { offset: 0xB17BD, size: 0x8, addend: 0x0, symName: __ZN11__hlt_bench9Benchmark5InnerC2Ev, symObjAddr: 0x7C, symBinAddr: 0x100008078, symSize: 0x14 }
  - { offset: 0xB17DF, size: 0x8, addend: 0x0, symName: __ZN11__hlt_bench9Benchmark5InnerC2Ev, symObjAddr: 0x7C, symBinAddr: 0x100008078, symSize: 0x14 }
  - { offset: 0xB17FC, size: 0x8, addend: 0x0, symName: __ZN11__hlt_bench9Benchmark5InnerC2Ev, symObjAddr: 0x7C, symBinAddr: 0x100008078, symSize: 0x14 }
  - { offset: 0xB181A, size: 0x8, addend: 0x0, symName: __ZN11__hlt_bench9Benchmark5InnerC2Ev, symObjAddr: 0x7C, symBinAddr: 0x100008078, symSize: 0x14 }
  - { offset: 0xB1838, size: 0x8, addend: 0x0, symName: __ZN11__hlt_bench9Benchmark5InnerC2Ev, symObjAddr: 0x7C, symBinAddr: 0x100008078, symSize: 0x14 }
  - { offset: 0xB1856, size: 0x8, addend: 0x0, symName: __ZN11__hlt_bench9Benchmark5InnerC2Ev, symObjAddr: 0x7C, symBinAddr: 0x100008078, symSize: 0x14 }
  - { offset: 0xB1874, size: 0x8, addend: 0x0, symName: __ZN11__hlt_bench9Benchmark5InnerC2Ev, symObjAddr: 0x7C, symBinAddr: 0x100008078, symSize: 0x14 }
  - { offset: 0xB1892, size: 0x8, addend: 0x0, symName: __ZN11__hlt_bench9Benchmark5InnerC2Ev, symObjAddr: 0x7C, symBinAddr: 0x100008078, symSize: 0x14 }
  - { offset: 0xB18B0, size: 0x8, addend: 0x0, symName: __ZN11__hlt_bench9Benchmark5InnerC2Ev, symObjAddr: 0x7C, symBinAddr: 0x100008078, symSize: 0x14 }
  - { offset: 0xB1A1E, size: 0x8, addend: 0x0, symName: __ZN11__hlt_bench9Benchmark5InnerC2ENSt3__18optionalINS3_I7SafeIntIhN5hilti2rt7integer6detail16SafeIntExceptionEEEEEE, symObjAddr: 0xA4, symBinAddr: 0x10000808C, symSize: 0x20 }
  - { offset: 0xB1A59, size: 0x8, addend: 0x0, symName: __ZN11__hlt_bench9Benchmark5InnerC2ENSt3__18optionalINS3_I7SafeIntIhN5hilti2rt7integer6detail16SafeIntExceptionEEEEEE, symObjAddr: 0xA4, symBinAddr: 0x10000808C, symSize: 0x20 }
  - { offset: 0xB1A74, size: 0x8, addend: 0x0, symName: __ZN11__hlt_bench9Benchmark5InnerC2ENSt3__18optionalINS3_I7SafeIntIhN5hilti2rt7integer6detail16SafeIntExceptionEEEEEE, symObjAddr: 0xA4, symBinAddr: 0x10000808C, symSize: 0x20 }
  - { offset: 0xB1A91, size: 0x8, addend: 0x0, symName: __ZN11__hlt_bench9Benchmark5InnerC2ENSt3__18optionalINS3_I7SafeIntIhN5hilti2rt7integer6detail16SafeIntExceptionEEEEEE, symObjAddr: 0xA4, symBinAddr: 0x10000808C, symSize: 0x20 }
  - { offset: 0xB1AAF, size: 0x8, addend: 0x0, symName: __ZN11__hlt_bench9Benchmark5InnerC2ENSt3__18optionalINS3_I7SafeIntIhN5hilti2rt7integer6detail16SafeIntExceptionEEEEEE, symObjAddr: 0xA4, symBinAddr: 0x10000808C, symSize: 0x20 }
  - { offset: 0xB1ACD, size: 0x8, addend: 0x0, symName: __ZN11__hlt_bench9Benchmark5InnerC2ENSt3__18optionalINS3_I7SafeIntIhN5hilti2rt7integer6detail16SafeIntExceptionEEEEEE, symObjAddr: 0xA4, symBinAddr: 0x10000808C, symSize: 0x20 }
  - { offset: 0xB1AEB, size: 0x8, addend: 0x0, symName: __ZN11__hlt_bench9Benchmark5InnerC2ENSt3__18optionalINS3_I7SafeIntIhN5hilti2rt7integer6detail16SafeIntExceptionEEEEEE, symObjAddr: 0xA4, symBinAddr: 0x10000808C, symSize: 0x20 }
  - { offset: 0xB1B09, size: 0x8, addend: 0x0, symName: __ZN11__hlt_bench9Benchmark5InnerC2ENSt3__18optionalINS3_I7SafeIntIhN5hilti2rt7integer6detail16SafeIntExceptionEEEEEE, symObjAddr: 0xA4, symBinAddr: 0x10000808C, symSize: 0x20 }
  - { offset: 0xB1B27, size: 0x8, addend: 0x0, symName: __ZN11__hlt_bench9Benchmark5InnerC2ENSt3__18optionalINS3_I7SafeIntIhN5hilti2rt7integer6detail16SafeIntExceptionEEEEEE, symObjAddr: 0xA4, symBinAddr: 0x10000808C, symSize: 0x20 }
  - { offset: 0xB1B45, size: 0x8, addend: 0x0, symName: __ZN11__hlt_bench9Benchmark5InnerC2ENSt3__18optionalINS3_I7SafeIntIhN5hilti2rt7integer6detail16SafeIntExceptionEEEEEE, symObjAddr: 0xA4, symBinAddr: 0x10000808C, symSize: 0x20 }
  - { offset: 0xB1FAF, size: 0x8, addend: 0x0, symName: __ZN11__hlt_bench9Benchmark8WithUnitC2Ev, symObjAddr: 0xE4, symBinAddr: 0x1000080AC, symSize: 0x28 }
  - { offset: 0xB24BE, size: 0x8, addend: 0x0, symName: __ZN11__hlt_bench9Benchmark8WithUnitC2ENSt3__18optionalINS3_I7SafeIntIyN5hilti2rt7integer6detail16SafeIntExceptionEEEEEENS3_INS3_INS6_6VectorINS0_5InnerENS2_9allocatorISE_EEEEEEEENS3_INS3_INS6_5BytesEEEEE, symObjAddr: 0x134, symBinAddr: 0x1000080D4, symSize: 0x98 }
  - { offset: 0xB29E7, size: 0x8, addend: 0x0, symName: __ZNSt3__123__optional_storage_baseIN5hilti2rt6VectorIN11__hlt_bench9Benchmark5InnerENS_9allocatorIS6_EEEELb0EE13__assign_fromB8ne180100INS_27__optional_move_assign_baseIS9_Lb0EEEEEvOT_, symObjAddr: 0x7AD8, symBinAddr: 0x10000F470, symSize: 0x104 }
  - { offset: 0xB2E94, size: 0x8, addend: 0x0, symName: __ZNSt3__123__optional_storage_baseIN5hilti2rt5BytesELb0EE13__assign_fromB8ne180100INS_27__optional_move_assign_baseIS3_Lb0EEEEEvOT_, symObjAddr: 0x7BDC, symBinAddr: 0x10000F574, symSize: 0x14C }
  - { offset: 0xB3434, size: 0x8, addend: 0x0, symName: __ZN11__hlt_bench9Benchmark8WithUnitC1ENSt3__18optionalINS3_I7SafeIntIyN5hilti2rt7integer6detail16SafeIntExceptionEEEEEENS3_INS3_INS6_6VectorINS0_5InnerENS2_9allocatorISE_EEEEEEEENS3_INS3_INS6_5BytesEEEEE, symObjAddr: 0x1CC, symBinAddr: 0x10000816C, symSize: 0x98 }
  - { offset: 0xB5B15, size: 0x8, addend: 0x0, symName: __ZN11__hlt_bench9Benchmark5Inner31__parse_Benchmark__Inner_stage2ERN5hilti2rt14ValueReferenceINS3_6StreamEEERKNS3_6stream17SafeConstIteratorENS8_4ViewENS3_4BoolE7SafeIntIxNS3_7integer6detail16SafeIntExceptionEES9_NSt3__18optionalINS3_18RecoverableFailureEEE, symObjAddr: 0x2E8, symBinAddr: 0x10000824C, symSize: 0x4E4 }
  - { offset: 0xB771E, size: 0x8, addend: 0x0, symName: __ZN5hilti2rt6ResultINSt3__15tupleIJ7SafeIntIhNS0_7integer6detail16SafeIntExceptionEENS0_6stream4ViewEEEEE12valueOrThrowINS0_6result8NoResultEEERSB_v, symObjAddr: 0xAD0, symBinAddr: 0x100008A34, symSize: 0xC8 }
  - { offset: 0xB78F7, size: 0x8, addend: 0x0, symName: __ZN5hilti2rt6stream17SafeConstIteratoraSERKS2_, symObjAddr: 0xCA70, symBinAddr: 0x100010248, symSize: 0x94 }
  - { offset: 0xB7BCD, size: 0x8, addend: 0x0, symName: __ZNSt3__123__optional_storage_baseIN5hilti2rt6stream17SafeConstIteratorELb0EE13__assign_fromB8ne180100IRKNS_27__optional_copy_assign_baseIS4_Lb0EEEEEvOT_, symObjAddr: 0xCB04, symBinAddr: 0x1000102DC, symSize: 0xC4 }
  - { offset: 0xB8295, size: 0x8, addend: 0x0, symName: __ZN5hilti2rt6stream6detail5Chain4trimERKNS1_17SafeConstIteratorE, symObjAddr: 0xBE6C, symBinAddr: 0x10000F87C, symSize: 0xE8 }
  - { offset: 0xB8490, size: 0x8, addend: 0x0, symName: __ZNSt3__112__tuple_implINS_15__tuple_indicesIJLm0ELm1ELm2ELm3EEEEJN5hilti2rt6stream4ViewE7SafeIntIxNS4_7integer6detail16SafeIntExceptionEENS5_17SafeConstIteratorENS_8optionalINS4_18RecoverableFailureEEEEEC2B8ne180100IJLm0ELm1ELm2ELm3EEJS6_SB_SC_SF_EJEJEJRS6_RSB_RSC_RSF_EEENS1_IJXspT_EEEENS_13__tuple_typesIJDpT0_EEENS1_IJXspT1_EEEENSN_IJDpT2_EEEDpOT3_, symObjAddr: 0xBF54, symBinAddr: 0x10000F964, symSize: 0x11C }
  - { offset: 0xB8DC0, size: 0x8, addend: 0x0, symName: __ZN5hilti2rt14ValueReferenceIN11__hlt_bench9Benchmark5InnerEED1Ev, symObjAddr: 0xD80, symBinAddr: 0x100008CE4, symSize: 0x58 }
  - { offset: 0xB8FBD, size: 0x8, addend: 0x0, symName: __ZNSt3__15tupleIJN5hilti2rt6stream4ViewE7SafeIntIxNS2_7integer6detail16SafeIntExceptionEENS3_17SafeConstIteratorENS_8optionalINS2_18RecoverableFailureEEEEED1Ev, symObjAddr: 0xCF8, symBinAddr: 0x100008C5C, symSize: 0x88 }
  - { offset: 0xB934D, size: 0x8, addend: 0x0, symName: __ZN5hilti2rt15StrongReferenceINS0_6VectorIN5spicy2rt6filter6detail9OneFilterENSt3__19allocatorIS7_EEEEED1Ev, symObjAddr: 0x7CC, symBinAddr: 0x100008730, symSize: 0x60 }
  - { offset: 0xB93F8, size: 0x8, addend: 0x0, symName: __ZN5hilti2rt6ResultINSt3__15tupleIJ7SafeIntIhNS0_7integer6detail16SafeIntExceptionEENS0_6stream4ViewEEEEED1Ev, symObjAddr: 0xB98, symBinAddr: 0x100008AFC, symSize: 0x58 }
  - { offset: 0xBA583, size: 0x8, addend: 0x0, symName: __ZNK5hilti2rt6stream4View7extractEPhy, symObjAddr: 0xEE50, symBinAddr: 0x100010BD4, symSize: 0x44C }
  - { offset: 0xBB83E, size: 0x8, addend: 0x0, symName: __ZN5hilti2rt6stream4ViewaSEOS2_, symObjAddr: 0x330C, symBinAddr: 0x10000B210, symSize: 0x98 }
  - { offset: 0xBBC10, size: 0x8, addend: 0x0, symName: __ZN5hilti2rt6result5ErrorC1ERKS2_, symObjAddr: 0xF2D4, symBinAddr: 0x100011058, symSize: 0xA8 }
  - { offset: 0xBBE6A, size: 0x8, addend: 0x0, symName: __ZN5hilti2rt6result8NoResultC1ENS1_5ErrorE, symObjAddr: 0xF37C, symBinAddr: 0x100011100, symSize: 0x80 }
  - { offset: 0xBC06F, size: 0x8, addend: 0x0, symName: __ZN5hilti2rt6result5ErrorD1Ev, symObjAddr: 0xBCCC, symBinAddr: 0x10000F7A4, symSize: 0x58 }
  - { offset: 0xBD932, size: 0x8, addend: 0x0, symName: __ZN11__hlt_bench9Benchmark5Inner14__parse_stage1ERN5hilti2rt14ValueReferenceINS3_6StreamEEERKNS3_6stream17SafeConstIteratorENS8_4ViewENS3_4BoolE7SafeIntIxNS3_7integer6detail16SafeIntExceptionEES9_NSt3__18optionalINS3_18RecoverableFailureEEE, symObjAddr: 0xDD8, symBinAddr: 0x100008D3C, symSize: 0x4D0 }
  - { offset: 0xBF721, size: 0x8, addend: 0x0, symName: __ZN5hilti2rt6detail11DebugLogger6indentENSt3__117basic_string_viewIcNS3_11char_traitsIcEEEE, symObjAddr: 0xC0E8, symBinAddr: 0x10000FA80, symSize: 0xE8 }
  - { offset: 0xBFCB8, size: 0x8, addend: 0x0, symName: __ZN5hilti2rt6stream17SafeConstIteratorD1Ev, symObjAddr: 0x12A8, symBinAddr: 0x10000920C, symSize: 0x78 }
  - { offset: 0xC1715, size: 0x8, addend: 0x0, symName: __ZN11__hlt_bench9Benchmark8WithUnit34__parse_Benchmark__WithUnit_stage2ERN5hilti2rt14ValueReferenceINS3_6StreamEEERKNS3_6stream17SafeConstIteratorENS8_4ViewENS3_4BoolE7SafeIntIxNS3_7integer6detail16SafeIntExceptionEES9_NSt3__18optionalINS3_18RecoverableFailureEEE, symObjAddr: 0x1380, symBinAddr: 0x100009284, symSize: 0xC38 }
  - { offset: 0xC5E1F, size: 0x8, addend: 0x0, symName: __ZN5hilti2rt6ResultINSt3__15tupleIJ7SafeIntIyNS0_7integer6detail16SafeIntExceptionEENS0_6stream4ViewEEEEE12valueOrThrowINS0_6result8NoResultEEERSB_v, symObjAddr: 0x2420, symBinAddr: 0x10000A324, symSize: 0xC8 }
  - { offset: 0xC5FF8, size: 0x8, addend: 0x0, symName: __ZNK5hilti2rt6stream4View5limitE7SafeIntIyNS0_7integer6detail16SafeIntExceptionEE, symObjAddr: 0x2540, symBinAddr: 0x10000A444, symSize: 0x16C }
  - { offset: 0xC6736, size: 0x8, addend: 0x0, symName: __ZNK5hilti2rt6stream4View7advanceERK7SafeIntIyNS0_7integer6detail16SafeIntExceptionEE, symObjAddr: 0x26AC, symBinAddr: 0x10000A5B0, symSize: 0x170 }
  - { offset: 0xC70CD, size: 0x8, addend: 0x0, symName: __ZNSt3__124__optional_destruct_baseIN5hilti2rt6VectorIN11__hlt_bench9Benchmark5InnerENS_9allocatorIS6_EEEELb0EE5resetB8ne180100Ev, symObjAddr: 0x3258, symBinAddr: 0x10000B15C, symSize: 0xB4 }
  - { offset: 0xC7491, size: 0x8, addend: 0x0, symName: __ZN11__hlt_bench9Benchmark8WithUnit20__parse_inner_stage1ERN5hilti2rt14ValueReferenceINS3_6StreamEEERKNS3_6stream17SafeConstIteratorENS8_4ViewENS3_4BoolE7SafeIntIxNS3_7integer6detail16SafeIntExceptionEES9_NSt3__18optionalINS3_18RecoverableFailureEEERNS3_6VectorINS0_5InnerENSJ_9allocatorISO_EEEE, symObjAddr: 0x281C, symBinAddr: 0x10000A720, symSize: 0xA3C }
  - { offset: 0xCB65A, size: 0x8, addend: 0x0, symName: __ZN5hilti2rt14ValueReferenceIN11__hlt_bench9Benchmark8WithUnitEED1Ev, symObjAddr: 0x33A4, symBinAddr: 0x10000B2A8, symSize: 0x58 }
  - { offset: 0xCB857, size: 0x8, addend: 0x0, symName: __ZN5hilti2rt6ResultINSt3__15tupleIJ7SafeIntIyNS0_7integer6detail16SafeIntExceptionEENS0_6stream4ViewEEEEED1Ev, symObjAddr: 0x24E8, symBinAddr: 0x10000A3EC, symSize: 0x58 }
  - { offset: 0xCC560, size: 0x8, addend: 0x0, symName: __ZN5hilti2rt6stream17SafeConstIterator10_incrementERK7SafeIntIyNS0_7integer6detail16SafeIntExceptionEE, symObjAddr: 0xC3E4, symBinAddr: 0x10000FBBC, symSize: 0x134 }
  - { offset: 0xCC992, size: 0x8, addend: 0x0, symName: __ZN5hilti2rt6stream4ViewC2ENS1_17SafeConstIteratorES3_, symObjAddr: 0xC518, symBinAddr: 0x10000FCF0, symSize: 0x27C }
  - { offset: 0xCD46D, size: 0x8, addend: 0x0, symName: __ZN5hilti2rt6stream4ViewC2ENS1_17SafeConstIteratorENSt3__18optionalIS3_EE, symObjAddr: 0xC954, symBinAddr: 0x10001012C, symSize: 0x11C }
  - { offset: 0xCD8B7, size: 0x8, addend: 0x0, symName: __ZNSt3__18optionalIN5hilti2rt6stream17SafeConstIteratorEED1Ev, symObjAddr: 0xBDEC, symBinAddr: 0x10000F7FC, symSize: 0x80 }
  - { offset: 0xCE683, size: 0x8, addend: 0x0, symName: __ZN11__hlt_bench9Benchmark5InneraSEOS1_, symObjAddr: 0xFA8C, symBinAddr: 0x100011810, symSize: 0xB8 }
  - { offset: 0xCE8EF, size: 0x8, addend: 0x0, symName: __ZNSt3__16vectorIN11__hlt_bench9Benchmark5InnerENS_9allocatorIS3_EEE24__emplace_back_slow_pathIJRS3_EEEPS3_DpOT_, symObjAddr: 0xFB44, symBinAddr: 0x1000118C8, symSize: 0x1E8 }
  - { offset: 0xCF229, size: 0x8, addend: 0x0, symName: __ZNK5hilti2rt6stream17SafeConstIteratoreqERKS2_, symObjAddr: 0x3438, symBinAddr: 0x10000B33C, symSize: 0x158 }
  - { offset: 0xCF5E8, size: 0x8, addend: 0x0, symName: __ZN11__hlt_bench9Benchmark5InnerD1Ev, symObjAddr: 0x33FC, symBinAddr: 0x10000B300, symSize: 0x3C }
  - { offset: 0xCF95A, size: 0x8, addend: 0x0, symName: __ZNSt3__123__optional_storage_baseIN5hilti2rt6stream17SafeConstIteratorELb0EE13__assign_fromB8ne180100INS_27__optional_move_assign_baseIS4_Lb0EEEEEvOT_, symObjAddr: 0xCBC8, symBinAddr: 0x1000103A0, symSize: 0x138 }
  - { offset: 0xD0090, size: 0x8, addend: 0x0, symName: __ZNK5hilti2rt6stream17SafeConstIterator16_ensureSameChainERKS2_, symObjAddr: 0xCD00, symBinAddr: 0x1000104D8, symSize: 0xB8 }
  - { offset: 0xD01B4, size: 0x8, addend: 0x0, symName: __ZN11__hlt_bench9Benchmark8WithUnit14__parse_stage1ERN5hilti2rt14ValueReferenceINS3_6StreamEEERKNS3_6stream17SafeConstIteratorENS8_4ViewENS3_4BoolE7SafeIntIxNS3_7integer6detail16SafeIntExceptionEES9_NSt3__18optionalINS3_18RecoverableFailureEEE, symObjAddr: 0x3590, symBinAddr: 0x10000B494, symSize: 0x4D4 }
  - { offset: 0xD2602, size: 0x8, addend: 0x0, symName: __ZN11__hlt_bench9Benchmark8WithUnit6parse1ERN5hilti2rt14ValueReferenceINS3_6StreamEEERKNSt3__18optionalINS3_6stream4ViewEEERKNS9_IN5spicy2rt11UnitContextEEE, symObjAddr: 0x3A64, symBinAddr: 0x10000B968, symSize: 0x860 }
  - { offset: 0xD5B60, size: 0x8, addend: 0x0, symName: __ZN5hilti2rt17StackSizeExceededC1ENSt3__117basic_string_viewIcNS2_11char_traitsIcEEEE, symObjAddr: 0xBC40, symBinAddr: 0x10000F718, symSize: 0x38 }
  - { offset: 0xD5DF5, size: 0x8, addend: 0x0, symName: __ZN11__hlt_bench9Benchmark8WithUnitD1Ev, symObjAddr: 0x442C, symBinAddr: 0x10000C330, symSize: 0xA8 }
  - { offset: 0xD6658, size: 0x8, addend: 0x0, symName: __ZN11__hlt_bench9Benchmark8WithUnitC2EOS1_, symObjAddr: 0xFF24, symBinAddr: 0x100011CA8, symSize: 0x144 }
  - { offset: 0xD70F3, size: 0x8, addend: 0x0, symName: __ZN11__hlt_bench9Benchmark8WithUnit6parse2ERN5hilti2rt14ValueReferenceIS1_EERNS4_INS3_6StreamEEERKNSt3__18optionalINS3_6stream4ViewEEERKNSB_IN5spicy2rt11UnitContextEEE, symObjAddr: 0x44D4, symBinAddr: 0x10000C3D8, symSize: 0x6A0 }
  - { offset: 0xD9939, size: 0x8, addend: 0x0, symName: __ZN11__hlt_bench9Benchmark8WithUnit6parse3ERN5hilti2rt14ValueReferenceIN5spicy2rt10ParsedUnitEEERNS4_INS3_6StreamEEERKNSt3__18optionalINS3_6stream4ViewEEERKNSE_INS6_11UnitContextEEE, symObjAddr: 0x4B74, symBinAddr: 0x10000CA78, symSize: 0x894 }
  - { offset: 0xDD017, size: 0x8, addend: 0x0, symName: __ZN5spicy2rt10ParsedUnit10initializeIN11__hlt_bench9Benchmark8WithUnitEEEvRS1_RKN5hilti2rt14ValueReferenceIT_EEPKNS8_8TypeInfoE, symObjAddr: 0x5408, symBinAddr: 0x10000D30C, symSize: 0x218 }
  - { offset: 0xDDC25, size: 0x8, addend: 0x0, symName: __ZNK5hilti2rt14ValueReferenceIN11__hlt_bench9Benchmark8WithUnitEE11asSharedPtrEv, symObjAddr: 0x10264, symBinAddr: 0x100011FE8, symSize: 0x194 }
  - { offset: 0xDE674, size: 0x8, addend: 0x0, symName: __ZN5hilti2rt6VectorIN5spicy2rt8MIMETypeENSt3__19allocatorIS4_EEEC2ESt16initializer_listIS4_ERKS7_, symObjAddr: 0x104CC, symBinAddr: 0x100012250, symSize: 0xCC }
  - { offset: 0xDE958, size: 0x8, addend: 0x0, symName: __ZN5spicy2rt6ParserC2ENSt3__117basic_string_viewIcNS2_11char_traitsIcEEEEbPFN5hilti2rt9ResumableERNS8_14ValueReferenceINS8_6StreamEEERKNS2_8optionalINS8_6stream4ViewEEERKNSE_INS0_11UnitContextEEEEN4linb3anyEPFS9_RNSA_INS0_10ParsedUnitEEESD_SJ_SN_ENS8_4NullEPKNS8_8TypeInfoENS2_12basic_stringIcS5_NS2_9allocatorIcEEEENS8_6VectorINS0_8MIMETypeENS12_IS16_EEEENS15_INS0_10ParserPortENS12_IS19_EEEE, symObjAddr: 0xCEEC, symBinAddr: 0x100010590, symSize: 0x214 }
  - { offset: 0xDF614, size: 0x8, addend: 0x0, symName: __ZN5spicy2rt6ParseraSEOS1_, symObjAddr: 0x6B9C, symBinAddr: 0x10000EAA0, symSize: 0x2D8 }
  - { offset: 0xE0454, size: 0x8, addend: 0x0, symName: __ZN5hilti2rt6VectorIN5spicy2rt10ParserPortENSt3__19allocatorIS4_EEED1Ev, symObjAddr: 0x6E74, symBinAddr: 0x10000ED78, symSize: 0x6C }
  - { offset: 0xE0624, size: 0x8, addend: 0x0, symName: __ZN5hilti2rt6VectorIN5spicy2rt8MIMETypeENSt3__19allocatorIS4_EEED1Ev, symObjAddr: 0x6EE0, symBinAddr: 0x10000EDE4, symSize: 0xC8 }
  - { offset: 0xE2ABC, size: 0x8, addend: 0x0, symName: __ZNK5hilti2rt14ValueReferenceINS0_6StreamEE11asSharedPtrEv, symObjAddr: 0x10778, symBinAddr: 0x1000124D4, symSize: 0x188 }
  - { offset: 0xE2E44, size: 0x8, addend: 0x0, symName: __ZNSt3__112__tuple_implINS_15__tuple_indicesIJLm0ELm1ELm2EEEEJN5hilti2rt14ValueReferenceINS4_6StreamEEENS_8optionalINS4_6stream4ViewEEENS8_IN5spicy2rt11UnitContextEEEEEC2EOSG_, symObjAddr: 0x109A8, symBinAddr: 0x100012704, symSize: 0x128 }
  - { offset: 0xE39BB, size: 0x8, addend: 0x0, symName: __ZN5hilti2rt6detail5Fiber4initENS1_8CallbackE, symObjAddr: 0x10AD0, symBinAddr: 0x10001282C, symSize: 0x178 }
  - { offset: 0xE42E9, size: 0x8, addend: 0x0, symName: __ZNSt3__110unique_ptrIN5hilti2rt9ResumableENS_14default_deleteIS3_EEED1B8ne180100Ev, symObjAddr: 0x7368, symBinAddr: 0x10000F1B4, symSize: 0x34 }
  - { offset: 0xE439F, size: 0x8, addend: 0x0, symName: __ZN9hlt_bench9Benchmark8WithUnit6parse1ERN5hilti2rt14ValueReferenceINS3_6StreamEEERKNSt3__18optionalINS3_6stream4ViewEEERKNS9_IN5spicy2rt11UnitContextEEE.cold.1, symObjAddr: 0x11C68, symBinAddr: 0x100058414, symSize: 0x48 }
  - { offset: 0xE4655, size: 0x8, addend: 0x0, symName: __ZNSt3__15tupleIJN5hilti2rt14ValueReferenceINS2_6StreamEEENS_8optionalINS2_6stream4ViewEEENS6_IN5spicy2rt11UnitContextEEEEED1Ev, symObjAddr: 0x745C, symBinAddr: 0x10000F1E8, symSize: 0x78 }
  - { offset: 0xE52AC, size: 0x8, addend: 0x0, symName: __ZNSt3__112__tuple_implINS_15__tuple_indicesIJLm0ELm1ELm2ELm3EEEEJN5hilti2rt14ValueReferenceIN11__hlt_bench9Benchmark8WithUnitEEENS5_INS4_6StreamEEENS_8optionalINS4_6stream4ViewEEENSC_IN5spicy2rt11UnitContextEEEEEC2B8ne180100IJLm0ELm1ELm2ELm3EEJS9_SB_SF_SJ_EJEJEJS9_SB_SF_SJ_EEENS1_IJXspT_EEEENS_13__tuple_typesIJDpT0_EEENS1_IJXspT1_EEEENSN_IJDpT2_EEEDpOT3_, symObjAddr: 0xD170, symBinAddr: 0x1000107C0, symSize: 0x170 }
  - { offset: 0xE6182, size: 0x8, addend: 0x0, symName: __ZNSt3__112__tuple_implINS_15__tuple_indicesIJLm0ELm1ELm2ELm3EEEEJN5hilti2rt14ValueReferenceIN11__hlt_bench9Benchmark8WithUnitEEENS5_INS4_6StreamEEENS_8optionalINS4_6stream4ViewEEENSC_IN5spicy2rt11UnitContextEEEEEC2EOSK_, symObjAddr: 0x11294, symBinAddr: 0x100012F14, symSize: 0x160 }
  - { offset: 0xE71D1, size: 0x8, addend: 0x0, symName: __ZNSt3__15tupleIJN5hilti2rt14ValueReferenceIN11__hlt_bench9Benchmark8WithUnitEEENS3_INS2_6StreamEEENS_8optionalINS2_6stream4ViewEEENSA_IN5spicy2rt11UnitContextEEEEED1Ev, symObjAddr: 0x7594, symBinAddr: 0x10000F260, symSize: 0xA4 }
  - { offset: 0xE85F6, size: 0x8, addend: 0x0, symName: __ZNK5hilti2rt14ValueReferenceIN5spicy2rt10ParsedUnitEE11asSharedPtrEv, symObjAddr: 0x11650, symBinAddr: 0x1000132D0, symSize: 0x188 }
  - { offset: 0xE897E, size: 0x8, addend: 0x0, symName: __ZNSt3__112__tuple_implINS_15__tuple_indicesIJLm0ELm1ELm2ELm3EEEEJN5hilti2rt14ValueReferenceIN5spicy2rt10ParsedUnitEEENS5_INS4_6StreamEEENS_8optionalINS4_6stream4ViewEEENSC_INS7_11UnitContextEEEEEC2B8ne180100IJLm0ELm1ELm2ELm3EEJS9_SB_SF_SH_EJEJEJS9_SB_SF_SH_EEENS1_IJXspT_EEEENS_13__tuple_typesIJDpT0_EEENS1_IJXspT1_EEEENSL_IJDpT2_EEEDpOT3_, symObjAddr: 0xD350, symBinAddr: 0x1000109A0, symSize: 0x170 }
  - { offset: 0xE9854, size: 0x8, addend: 0x0, symName: __ZNSt3__112__tuple_implINS_15__tuple_indicesIJLm0ELm1ELm2ELm3EEEEJN5hilti2rt14ValueReferenceIN5spicy2rt10ParsedUnitEEENS5_INS4_6StreamEEENS_8optionalINS4_6stream4ViewEEENSC_INS7_11UnitContextEEEEEC2EOSI_, symObjAddr: 0x118AC, symBinAddr: 0x10001352C, symSize: 0x160 }
  - { offset: 0xEA6D1, size: 0x8, addend: 0x0, symName: __ZN5hilti2rt14ValueReferenceIN5spicy2rt10ParsedUnitEED1Ev, symObjAddr: 0x7638, symBinAddr: 0x10000F304, symSize: 0x58 }
  - { offset: 0xEAAA0, size: 0x8, addend: 0x0, symName: __ZNSt3__15tupleIJN5hilti2rt14ValueReferenceIN5spicy2rt10ParsedUnitEEENS3_INS2_6StreamEEENS_8optionalINS2_6stream4ViewEEENSA_INS5_11UnitContextEEEEED1Ev, symObjAddr: 0x7750, symBinAddr: 0x10000F35C, symSize: 0xA4 }
  - { offset: 0xEBAEC, size: 0x8, addend: 0x0, symName: __ZNK5hilti2rt14ValueReferenceINS0_6StreamEE11asSharedPtrEv, symObjAddr: 0x10778, symBinAddr: 0x1000124D4, symSize: 0x188 }
  - { offset: 0xED969, size: 0x8, addend: 0x0, symName: __ZN5spicy2rt6ParserUt_D1Ev, symObjAddr: 0x79B8, symBinAddr: 0x10000F400, symSize: 0x70 }
  - { offset: 0xEDF77, size: 0x8, addend: 0x0, symName: '__ZN11__hlt_bench9type_info12_GLOBAL__N_13$_08__invokeEPKv', symObjAddr: 0x7D28, symBinAddr: 0x10000F6C0, symSize: 0x48 }
  - { offset: 0xEE92B, size: 0x8, addend: 0x0, symName: '__ZN11__hlt_bench9type_info12_GLOBAL__N_13$_18__invokeEPKv', symObjAddr: 0x91CC, symBinAddr: 0x10000F708, symSize: 0x4 }
  - { offset: 0xEE950, size: 0x8, addend: 0x0, symName: '__ZN11__hlt_bench9type_info12_GLOBAL__N_13$_18__invokeEPKv', symObjAddr: 0x91CC, symBinAddr: 0x10000F708, symSize: 0x4 }
  - { offset: 0xEE96D, size: 0x8, addend: 0x0, symName: '__ZN11__hlt_bench9type_info12_GLOBAL__N_13$_18__invokeEPKv', symObjAddr: 0x91CC, symBinAddr: 0x10000F708, symSize: 0x4 }
  - { offset: 0xEEA04, size: 0x8, addend: 0x0, symName: '__ZN11__hlt_bench9type_info12_GLOBAL__N_13$_28__invokeEPKv', symObjAddr: 0x93B8, symBinAddr: 0x10000F70C, symSize: 0x4 }
  - { offset: 0xEEA29, size: 0x8, addend: 0x0, symName: '__ZN11__hlt_bench9type_info12_GLOBAL__N_13$_28__invokeEPKv', symObjAddr: 0x93B8, symBinAddr: 0x10000F70C, symSize: 0x4 }
  - { offset: 0xEEA44, size: 0x8, addend: 0x0, symName: '__ZN11__hlt_bench9type_info12_GLOBAL__N_13$_28__invokeEPKv', symObjAddr: 0x93B8, symBinAddr: 0x10000F70C, symSize: 0x4 }
  - { offset: 0xEEA5F, size: 0x8, addend: 0x0, symName: '__ZN11__hlt_bench9type_info12_GLOBAL__N_13$_28__invokeEPKv', symObjAddr: 0x93B8, symBinAddr: 0x10000F70C, symSize: 0x4 }
  - { offset: 0xEEA7E, size: 0x8, addend: 0x0, symName: '__ZN11__hlt_bench9type_info12_GLOBAL__N_13$_28__invokeEPKv', symObjAddr: 0x93B8, symBinAddr: 0x10000F70C, symSize: 0x4 }
  - { offset: 0xEEACB, size: 0x8, addend: 0x0, symName: '__ZN11__hlt_bench9type_info12_GLOBAL__N_13$_38__invokeEPKv', symObjAddr: 0x93BC, symBinAddr: 0x10000F710, symSize: 0x4 }
  - { offset: 0xEEAF0, size: 0x8, addend: 0x0, symName: '__ZN11__hlt_bench9type_info12_GLOBAL__N_13$_38__invokeEPKv', symObjAddr: 0x93BC, symBinAddr: 0x10000F710, symSize: 0x4 }
  - { offset: 0xEEB0B, size: 0x8, addend: 0x0, symName: '__ZN11__hlt_bench9type_info12_GLOBAL__N_13$_38__invokeEPKv', symObjAddr: 0x93BC, symBinAddr: 0x10000F710, symSize: 0x4 }
  - { offset: 0xEEB29, size: 0x8, addend: 0x0, symName: '__ZN11__hlt_bench9type_info12_GLOBAL__N_13$_38__invokeEPKv', symObjAddr: 0x93BC, symBinAddr: 0x10000F710, symSize: 0x4 }
  - { offset: 0xF21D2, size: 0x8, addend: 0x0, symName: '__ZN11__hlt_bench9type_info12_GLOBAL__N_13$_48__invokeEPKv', symObjAddr: 0xBC3C, symBinAddr: 0x10000F714, symSize: 0x4 }
  - { offset: 0xF21F7, size: 0x8, addend: 0x0, symName: '__ZN11__hlt_bench9type_info12_GLOBAL__N_13$_48__invokeEPKv', symObjAddr: 0xBC3C, symBinAddr: 0x10000F714, symSize: 0x4 }
  - { offset: 0xF2212, size: 0x8, addend: 0x0, symName: '__ZN11__hlt_bench9type_info12_GLOBAL__N_13$_48__invokeEPKv', symObjAddr: 0xBC3C, symBinAddr: 0x10000F714, symSize: 0x4 }
  - { offset: 0xF222D, size: 0x8, addend: 0x0, symName: '__ZN11__hlt_bench9type_info12_GLOBAL__N_13$_48__invokeEPKv', symObjAddr: 0xBC3C, symBinAddr: 0x10000F714, symSize: 0x4 }
  - { offset: 0xF224C, size: 0x8, addend: 0x0, symName: '__ZN11__hlt_bench9type_info12_GLOBAL__N_13$_48__invokeEPKv', symObjAddr: 0xBC3C, symBinAddr: 0x10000F714, symSize: 0x4 }
  - { offset: 0xF235B, size: 0x8, addend: 0x0, symName: __ZNSt3__116__variant_detail12__visitation6__base12__dispatcherIJLm0EEE10__dispatchB8ne180100IOZNS0_6__dtorINS0_8__traitsIJNS_5tupleIJ7SafeIntIhN5hilti2rt7integer6detail16SafeIntExceptionEENSB_6stream4ViewEEEENSB_6result5ErrorEEEELNS0_6_TraitE1EE9__destroyB8ne180100EvEUlRT_E_JRNS0_6__baseILSM_1EJSI_SK_EEEEEEDcSO_DpT0_, symObjAddr: 0xBC78, symBinAddr: 0x10000F750, symSize: 0x8 }
  - { offset: 0xF2391, size: 0x8, addend: 0x0, symName: __ZNSt3__116__variant_detail12__visitation6__base12__dispatcherIJLm0EEE10__dispatchB8ne180100IOZNS0_6__dtorINS0_8__traitsIJNS_5tupleIJ7SafeIntIhN5hilti2rt7integer6detail16SafeIntExceptionEENSB_6stream4ViewEEEENSB_6result5ErrorEEEELNS0_6_TraitE1EE9__destroyB8ne180100EvEUlRT_E_JRNS0_6__baseILSM_1EJSI_SK_EEEEEEDcSO_DpT0_, symObjAddr: 0xBC78, symBinAddr: 0x10000F750, symSize: 0x8 }
  - { offset: 0xF23B6, size: 0x8, addend: 0x0, symName: __ZNSt3__116__variant_detail12__visitation6__base12__dispatcherIJLm0EEE10__dispatchB8ne180100IOZNS0_6__dtorINS0_8__traitsIJNS_5tupleIJ7SafeIntIhN5hilti2rt7integer6detail16SafeIntExceptionEENSB_6stream4ViewEEEENSB_6result5ErrorEEEELNS0_6_TraitE1EE9__destroyB8ne180100EvEUlRT_E_JRNS0_6__baseILSM_1EJSI_SK_EEEEEEDcSO_DpT0_, symObjAddr: 0xBC78, symBinAddr: 0x10000F750, symSize: 0x8 }
  - { offset: 0xF23DB, size: 0x8, addend: 0x0, symName: __ZNSt3__116__variant_detail12__visitation6__base12__dispatcherIJLm0EEE10__dispatchB8ne180100IOZNS0_6__dtorINS0_8__traitsIJNS_5tupleIJ7SafeIntIhN5hilti2rt7integer6detail16SafeIntExceptionEENSB_6stream4ViewEEEENSB_6result5ErrorEEEELNS0_6_TraitE1EE9__destroyB8ne180100EvEUlRT_E_JRNS0_6__baseILSM_1EJSI_SK_EEEEEEDcSO_DpT0_, symObjAddr: 0xBC78, symBinAddr: 0x10000F750, symSize: 0x8 }
  - { offset: 0xF23F7, size: 0x8, addend: 0x0, symName: __ZNSt3__116__variant_detail12__visitation6__base12__dispatcherIJLm0EEE10__dispatchB8ne180100IOZNS0_6__dtorINS0_8__traitsIJNS_5tupleIJ7SafeIntIhN5hilti2rt7integer6detail16SafeIntExceptionEENSB_6stream4ViewEEEENSB_6result5ErrorEEEELNS0_6_TraitE1EE9__destroyB8ne180100EvEUlRT_E_JRNS0_6__baseILSM_1EJSI_SK_EEEEEEDcSO_DpT0_, symObjAddr: 0xBC78, symBinAddr: 0x10000F750, symSize: 0x8 }
  - { offset: 0xF2413, size: 0x8, addend: 0x0, symName: __ZNSt3__116__variant_detail12__visitation6__base12__dispatcherIJLm0EEE10__dispatchB8ne180100IOZNS0_6__dtorINS0_8__traitsIJNS_5tupleIJ7SafeIntIhN5hilti2rt7integer6detail16SafeIntExceptionEENSB_6stream4ViewEEEENSB_6result5ErrorEEEELNS0_6_TraitE1EE9__destroyB8ne180100EvEUlRT_E_JRNS0_6__baseILSM_1EJSI_SK_EEEEEEDcSO_DpT0_, symObjAddr: 0xBC78, symBinAddr: 0x10000F750, symSize: 0x8 }
  - { offset: 0xF242F, size: 0x8, addend: 0x0, symName: __ZNSt3__116__variant_detail12__visitation6__base12__dispatcherIJLm0EEE10__dispatchB8ne180100IOZNS0_6__dtorINS0_8__traitsIJNS_5tupleIJ7SafeIntIhN5hilti2rt7integer6detail16SafeIntExceptionEENSB_6stream4ViewEEEENSB_6result5ErrorEEEELNS0_6_TraitE1EE9__destroyB8ne180100EvEUlRT_E_JRNS0_6__baseILSM_1EJSI_SK_EEEEEEDcSO_DpT0_, symObjAddr: 0xBC78, symBinAddr: 0x10000F750, symSize: 0x8 }
  - { offset: 0xF244B, size: 0x8, addend: 0x0, symName: __ZNSt3__116__variant_detail12__visitation6__base12__dispatcherIJLm0EEE10__dispatchB8ne180100IOZNS0_6__dtorINS0_8__traitsIJNS_5tupleIJ7SafeIntIhN5hilti2rt7integer6detail16SafeIntExceptionEENSB_6stream4ViewEEEENSB_6result5ErrorEEEELNS0_6_TraitE1EE9__destroyB8ne180100EvEUlRT_E_JRNS0_6__baseILSM_1EJSI_SK_EEEEEEDcSO_DpT0_, symObjAddr: 0xBC78, symBinAddr: 0x10000F750, symSize: 0x8 }
  - { offset: 0xF2467, size: 0x8, addend: 0x0, symName: __ZNSt3__116__variant_detail12__visitation6__base12__dispatcherIJLm0EEE10__dispatchB8ne180100IOZNS0_6__dtorINS0_8__traitsIJNS_5tupleIJ7SafeIntIhN5hilti2rt7integer6detail16SafeIntExceptionEENSB_6stream4ViewEEEENSB_6result5ErrorEEEELNS0_6_TraitE1EE9__destroyB8ne180100EvEUlRT_E_JRNS0_6__baseILSM_1EJSI_SK_EEEEEEDcSO_DpT0_, symObjAddr: 0xBC78, symBinAddr: 0x10000F750, symSize: 0x8 }
  - { offset: 0xF258C, size: 0x8, addend: 0x0, symName: __ZNSt3__116__variant_detail12__visitation6__base12__dispatcherIJLm1EEE10__dispatchB8ne180100IOZNS0_6__dtorINS0_8__traitsIJNS_5tupleIJ7SafeIntIhN5hilti2rt7integer6detail16SafeIntExceptionEENSB_6stream4ViewEEEENSB_6result5ErrorEEEELNS0_6_TraitE1EE9__destroyB8ne180100EvEUlRT_E_JRNS0_6__baseILSM_1EJSI_SK_EEEEEEDcSO_DpT0_, symObjAddr: 0xBC80, symBinAddr: 0x10000F758, symSize: 0x4C }
  - { offset: 0xF2F81, size: 0x8, addend: 0x0, symName: __ZNSt3__116__variant_detail12__visitation6__base12__dispatcherIJLm0EEE10__dispatchB8ne180100IOZNS0_6__dtorINS0_8__traitsIJNS_5tupleIJ7SafeIntIyN5hilti2rt7integer6detail16SafeIntExceptionEENSB_6stream4ViewEEEENSB_6result5ErrorEEEELNS0_6_TraitE1EE9__destroyB8ne180100EvEUlRT_E_JRNS0_6__baseILSM_1EJSI_SK_EEEEEEDcSO_DpT0_, symObjAddr: 0xC390, symBinAddr: 0x10000FB68, symSize: 0x8 }
  - { offset: 0xF2FB7, size: 0x8, addend: 0x0, symName: __ZNSt3__116__variant_detail12__visitation6__base12__dispatcherIJLm0EEE10__dispatchB8ne180100IOZNS0_6__dtorINS0_8__traitsIJNS_5tupleIJ7SafeIntIyN5hilti2rt7integer6detail16SafeIntExceptionEENSB_6stream4ViewEEEENSB_6result5ErrorEEEELNS0_6_TraitE1EE9__destroyB8ne180100EvEUlRT_E_JRNS0_6__baseILSM_1EJSI_SK_EEEEEEDcSO_DpT0_, symObjAddr: 0xC390, symBinAddr: 0x10000FB68, symSize: 0x8 }
  - { offset: 0xF2FDC, size: 0x8, addend: 0x0, symName: __ZNSt3__116__variant_detail12__visitation6__base12__dispatcherIJLm0EEE10__dispatchB8ne180100IOZNS0_6__dtorINS0_8__traitsIJNS_5tupleIJ7SafeIntIyN5hilti2rt7integer6detail16SafeIntExceptionEENSB_6stream4ViewEEEENSB_6result5ErrorEEEELNS0_6_TraitE1EE9__destroyB8ne180100EvEUlRT_E_JRNS0_6__baseILSM_1EJSI_SK_EEEEEEDcSO_DpT0_, symObjAddr: 0xC390, symBinAddr: 0x10000FB68, symSize: 0x8 }
  - { offset: 0xF3001, size: 0x8, addend: 0x0, symName: __ZNSt3__116__variant_detail12__visitation6__base12__dispatcherIJLm0EEE10__dispatchB8ne180100IOZNS0_6__dtorINS0_8__traitsIJNS_5tupleIJ7SafeIntIyN5hilti2rt7integer6detail16SafeIntExceptionEENSB_6stream4ViewEEEENSB_6result5ErrorEEEELNS0_6_TraitE1EE9__destroyB8ne180100EvEUlRT_E_JRNS0_6__baseILSM_1EJSI_SK_EEEEEEDcSO_DpT0_, symObjAddr: 0xC390, symBinAddr: 0x10000FB68, symSize: 0x8 }
  - { offset: 0xF301D, size: 0x8, addend: 0x0, symName: __ZNSt3__116__variant_detail12__visitation6__base12__dispatcherIJLm0EEE10__dispatchB8ne180100IOZNS0_6__dtorINS0_8__traitsIJNS_5tupleIJ7SafeIntIyN5hilti2rt7integer6detail16SafeIntExceptionEENSB_6stream4ViewEEEENSB_6result5ErrorEEEELNS0_6_TraitE1EE9__destroyB8ne180100EvEUlRT_E_JRNS0_6__baseILSM_1EJSI_SK_EEEEEEDcSO_DpT0_, symObjAddr: 0xC390, symBinAddr: 0x10000FB68, symSize: 0x8 }
  - { offset: 0xF3039, size: 0x8, addend: 0x0, symName: __ZNSt3__116__variant_detail12__visitation6__base12__dispatcherIJLm0EEE10__dispatchB8ne180100IOZNS0_6__dtorINS0_8__traitsIJNS_5tupleIJ7SafeIntIyN5hilti2rt7integer6detail16SafeIntExceptionEENSB_6stream4ViewEEEENSB_6result5ErrorEEEELNS0_6_TraitE1EE9__destroyB8ne180100EvEUlRT_E_JRNS0_6__baseILSM_1EJSI_SK_EEEEEEDcSO_DpT0_, symObjAddr: 0xC390, symBinAddr: 0x10000FB68, symSize: 0x8 }
  - { offset: 0xF3055, size: 0x8, addend: 0x0, symName: __ZNSt3__116__variant_detail12__visitation6__base12__dispatcherIJLm0EEE10__dispatchB8ne180100IOZNS0_6__dtorINS0_8__traitsIJNS_5tupleIJ7SafeIntIyN5hilti2rt7integer6detail16SafeIntExceptionEENSB_6stream4ViewEEEENSB_6result5ErrorEEEELNS0_6_TraitE1EE9__destroyB8ne180100EvEUlRT_E_JRNS0_6__baseILSM_1EJSI_SK_EEEEEEDcSO_DpT0_, symObjAddr: 0xC390, symBinAddr: 0x10000FB68, symSize: 0x8 }
  - { offset: 0xF3071, size: 0x8, addend: 0x0, symName: __ZNSt3__116__variant_detail12__visitation6__base12__dispatcherIJLm0EEE10__dispatchB8ne180100IOZNS0_6__dtorINS0_8__traitsIJNS_5tupleIJ7SafeIntIyN5hilti2rt7integer6detail16SafeIntExceptionEENSB_6stream4ViewEEEENSB_6result5ErrorEEEELNS0_6_TraitE1EE9__destroyB8ne180100EvEUlRT_E_JRNS0_6__baseILSM_1EJSI_SK_EEEEEEDcSO_DpT0_, symObjAddr: 0xC390, symBinAddr: 0x10000FB68, symSize: 0x8 }
  - { offset: 0xF308D, size: 0x8, addend: 0x0, symName: __ZNSt3__116__variant_detail12__visitation6__base12__dispatcherIJLm0EEE10__dispatchB8ne180100IOZNS0_6__dtorINS0_8__traitsIJNS_5tupleIJ7SafeIntIyN5hilti2rt7integer6detail16SafeIntExceptionEENSB_6stream4ViewEEEENSB_6result5ErrorEEEELNS0_6_TraitE1EE9__destroyB8ne180100EvEUlRT_E_JRNS0_6__baseILSM_1EJSI_SK_EEEEEEDcSO_DpT0_, symObjAddr: 0xC390, symBinAddr: 0x10000FB68, symSize: 0x8 }
  - { offset: 0xF313A, size: 0x8, addend: 0x0, symName: __ZNSt3__116__variant_detail12__visitation6__base12__dispatcherIJLm1EEE10__dispatchB8ne180100IOZNS0_6__dtorINS0_8__traitsIJNS_5tupleIJ7SafeIntIyN5hilti2rt7integer6detail16SafeIntExceptionEENSB_6stream4ViewEEEENSB_6result5ErrorEEEELNS0_6_TraitE1EE9__destroyB8ne180100EvEUlRT_E_JRNS0_6__baseILSM_1EJSI_SK_EEEEEEDcSO_DpT0_, symObjAddr: 0xC398, symBinAddr: 0x10000FB70, symSize: 0x4C }
  - { offset: 0xF3760, size: 0x8, addend: 0x0, symName: __ZNK5hilti2rt6stream4View12_ensureValidEv, symObjAddr: 0xC794, symBinAddr: 0x10000FF6C, symSize: 0x108 }
  - { offset: 0xF3951, size: 0x8, addend: 0x0, symName: __ZNSt3__18optionalIN5hilti2rt6stream17SafeConstIteratorEEaSB8ne180100IS4_vEERS5_OT_, symObjAddr: 0xC89C, symBinAddr: 0x100010074, symSize: 0xB8 }
  - { offset: 0xF4039, size: 0x8, addend: 0x0, symName: __ZNSt3__116__variant_detail12__visitation6__base12__dispatcherIJLm0ELm0EEE10__dispatchB8ne180100IOZNS0_6__ctorINS0_8__traitsIJNS_10shared_ptrIN5hilti2rt6StreamEEEPSB_EEEE19__generic_constructB8ne180100INS0_18__move_constructorISE_LNS0_6_TraitE1EEEEEvRSF_OT_EUlRSL_OT0_E_JRNS0_6__baseILSI_1EJSC_SD_EEEOST_EEEDcSL_DpT0_, symObjAddr: 0xD154, symBinAddr: 0x1000107A4, symSize: 0x10 }
  - { offset: 0xF407D, size: 0x8, addend: 0x0, symName: __ZNSt3__116__variant_detail12__visitation6__base12__dispatcherIJLm0ELm0EEE10__dispatchB8ne180100IOZNS0_6__ctorINS0_8__traitsIJNS_10shared_ptrIN5hilti2rt6StreamEEEPSB_EEEE19__generic_constructB8ne180100INS0_18__move_constructorISE_LNS0_6_TraitE1EEEEEvRSF_OT_EUlRSL_OT0_E_JRNS0_6__baseILSI_1EJSC_SD_EEEOST_EEEDcSL_DpT0_, symObjAddr: 0xD154, symBinAddr: 0x1000107A4, symSize: 0x10 }
  - { offset: 0xF40A7, size: 0x8, addend: 0x0, symName: __ZNSt3__116__variant_detail12__visitation6__base12__dispatcherIJLm0ELm0EEE10__dispatchB8ne180100IOZNS0_6__ctorINS0_8__traitsIJNS_10shared_ptrIN5hilti2rt6StreamEEEPSB_EEEE19__generic_constructB8ne180100INS0_18__move_constructorISE_LNS0_6_TraitE1EEEEEvRSF_OT_EUlRSL_OT0_E_JRNS0_6__baseILSI_1EJSC_SD_EEEOST_EEEDcSL_DpT0_, symObjAddr: 0xD154, symBinAddr: 0x1000107A4, symSize: 0x10 }
  - { offset: 0xF40D1, size: 0x8, addend: 0x0, symName: __ZNSt3__116__variant_detail12__visitation6__base12__dispatcherIJLm0ELm0EEE10__dispatchB8ne180100IOZNS0_6__ctorINS0_8__traitsIJNS_10shared_ptrIN5hilti2rt6StreamEEEPSB_EEEE19__generic_constructB8ne180100INS0_18__move_constructorISE_LNS0_6_TraitE1EEEEEvRSF_OT_EUlRSL_OT0_E_JRNS0_6__baseILSI_1EJSC_SD_EEEOST_EEEDcSL_DpT0_, symObjAddr: 0xD154, symBinAddr: 0x1000107A4, symSize: 0x10 }
  - { offset: 0xF40F4, size: 0x8, addend: 0x0, symName: __ZNSt3__116__variant_detail12__visitation6__base12__dispatcherIJLm0ELm0EEE10__dispatchB8ne180100IOZNS0_6__ctorINS0_8__traitsIJNS_10shared_ptrIN5hilti2rt6StreamEEEPSB_EEEE19__generic_constructB8ne180100INS0_18__move_constructorISE_LNS0_6_TraitE1EEEEEvRSF_OT_EUlRSL_OT0_E_JRNS0_6__baseILSI_1EJSC_SD_EEEOST_EEEDcSL_DpT0_, symObjAddr: 0xD154, symBinAddr: 0x1000107A4, symSize: 0x10 }
  - { offset: 0xF4117, size: 0x8, addend: 0x0, symName: __ZNSt3__116__variant_detail12__visitation6__base12__dispatcherIJLm0ELm0EEE10__dispatchB8ne180100IOZNS0_6__ctorINS0_8__traitsIJNS_10shared_ptrIN5hilti2rt6StreamEEEPSB_EEEE19__generic_constructB8ne180100INS0_18__move_constructorISE_LNS0_6_TraitE1EEEEEvRSF_OT_EUlRSL_OT0_E_JRNS0_6__baseILSI_1EJSC_SD_EEEOST_EEEDcSL_DpT0_, symObjAddr: 0xD154, symBinAddr: 0x1000107A4, symSize: 0x10 }
  - { offset: 0xF413A, size: 0x8, addend: 0x0, symName: __ZNSt3__116__variant_detail12__visitation6__base12__dispatcherIJLm0ELm0EEE10__dispatchB8ne180100IOZNS0_6__ctorINS0_8__traitsIJNS_10shared_ptrIN5hilti2rt6StreamEEEPSB_EEEE19__generic_constructB8ne180100INS0_18__move_constructorISE_LNS0_6_TraitE1EEEEEvRSF_OT_EUlRSL_OT0_E_JRNS0_6__baseILSI_1EJSC_SD_EEEOST_EEEDcSL_DpT0_, symObjAddr: 0xD154, symBinAddr: 0x1000107A4, symSize: 0x10 }
  - { offset: 0xF415D, size: 0x8, addend: 0x0, symName: __ZNSt3__116__variant_detail12__visitation6__base12__dispatcherIJLm0ELm0EEE10__dispatchB8ne180100IOZNS0_6__ctorINS0_8__traitsIJNS_10shared_ptrIN5hilti2rt6StreamEEEPSB_EEEE19__generic_constructB8ne180100INS0_18__move_constructorISE_LNS0_6_TraitE1EEEEEvRSF_OT_EUlRSL_OT0_E_JRNS0_6__baseILSI_1EJSC_SD_EEEOST_EEEDcSL_DpT0_, symObjAddr: 0xD154, symBinAddr: 0x1000107A4, symSize: 0x10 }
  - { offset: 0xF42B6, size: 0x8, addend: 0x0, symName: __ZNSt3__116__variant_detail12__visitation6__base12__dispatcherIJLm1ELm1EEE10__dispatchB8ne180100IOZNS0_6__ctorINS0_8__traitsIJNS_10shared_ptrIN5hilti2rt6StreamEEEPSB_EEEE19__generic_constructB8ne180100INS0_18__move_constructorISE_LNS0_6_TraitE1EEEEEvRSF_OT_EUlRSL_OT0_E_JRNS0_6__baseILSI_1EJSC_SD_EEEOST_EEEDcSL_DpT0_, symObjAddr: 0xD164, symBinAddr: 0x1000107B4, symSize: 0xC }
  - { offset: 0xF42FA, size: 0x8, addend: 0x0, symName: __ZNSt3__116__variant_detail12__visitation6__base12__dispatcherIJLm1ELm1EEE10__dispatchB8ne180100IOZNS0_6__ctorINS0_8__traitsIJNS_10shared_ptrIN5hilti2rt6StreamEEEPSB_EEEE19__generic_constructB8ne180100INS0_18__move_constructorISE_LNS0_6_TraitE1EEEEEvRSF_OT_EUlRSL_OT0_E_JRNS0_6__baseILSI_1EJSC_SD_EEEOST_EEEDcSL_DpT0_, symObjAddr: 0xD164, symBinAddr: 0x1000107B4, symSize: 0xC }
  - { offset: 0xF4324, size: 0x8, addend: 0x0, symName: __ZNSt3__116__variant_detail12__visitation6__base12__dispatcherIJLm1ELm1EEE10__dispatchB8ne180100IOZNS0_6__ctorINS0_8__traitsIJNS_10shared_ptrIN5hilti2rt6StreamEEEPSB_EEEE19__generic_constructB8ne180100INS0_18__move_constructorISE_LNS0_6_TraitE1EEEEEvRSF_OT_EUlRSL_OT0_E_JRNS0_6__baseILSI_1EJSC_SD_EEEOST_EEEDcSL_DpT0_, symObjAddr: 0xD164, symBinAddr: 0x1000107B4, symSize: 0xC }
  - { offset: 0xF434E, size: 0x8, addend: 0x0, symName: __ZNSt3__116__variant_detail12__visitation6__base12__dispatcherIJLm1ELm1EEE10__dispatchB8ne180100IOZNS0_6__ctorINS0_8__traitsIJNS_10shared_ptrIN5hilti2rt6StreamEEEPSB_EEEE19__generic_constructB8ne180100INS0_18__move_constructorISE_LNS0_6_TraitE1EEEEEvRSF_OT_EUlRSL_OT0_E_JRNS0_6__baseILSI_1EJSC_SD_EEEOST_EEEDcSL_DpT0_, symObjAddr: 0xD164, symBinAddr: 0x1000107B4, symSize: 0xC }
  - { offset: 0xF4371, size: 0x8, addend: 0x0, symName: __ZNSt3__116__variant_detail12__visitation6__base12__dispatcherIJLm1ELm1EEE10__dispatchB8ne180100IOZNS0_6__ctorINS0_8__traitsIJNS_10shared_ptrIN5hilti2rt6StreamEEEPSB_EEEE19__generic_constructB8ne180100INS0_18__move_constructorISE_LNS0_6_TraitE1EEEEEvRSF_OT_EUlRSL_OT0_E_JRNS0_6__baseILSI_1EJSC_SD_EEEOST_EEEDcSL_DpT0_, symObjAddr: 0xD164, symBinAddr: 0x1000107B4, symSize: 0xC }
  - { offset: 0xF4394, size: 0x8, addend: 0x0, symName: __ZNSt3__116__variant_detail12__visitation6__base12__dispatcherIJLm1ELm1EEE10__dispatchB8ne180100IOZNS0_6__ctorINS0_8__traitsIJNS_10shared_ptrIN5hilti2rt6StreamEEEPSB_EEEE19__generic_constructB8ne180100INS0_18__move_constructorISE_LNS0_6_TraitE1EEEEEvRSF_OT_EUlRSL_OT0_E_JRNS0_6__baseILSI_1EJSC_SD_EEEOST_EEEDcSL_DpT0_, symObjAddr: 0xD164, symBinAddr: 0x1000107B4, symSize: 0xC }
  - { offset: 0xF4906, size: 0x8, addend: 0x0, symName: __ZNSt3__116__variant_detail12__visitation6__base12__dispatcherIJLm0EEE10__dispatchB8ne180100IOZNS0_6__dtorINS0_8__traitsIJNS_10shared_ptrIN11__hlt_bench9Benchmark8WithUnitEEEPSB_EEELNS0_6_TraitE1EE9__destroyB8ne180100EvEUlRT_E_JRNS0_6__baseILSF_1EJSC_SD_EEEEEEDcSH_DpT0_, symObjAddr: 0xD2E0, symBinAddr: 0x100010930, symSize: 0x50 }
  - { offset: 0xF4A46, size: 0x8, addend: 0x0, symName: __ZNSt3__116__variant_detail12__visitation6__base12__dispatcherIJLm1EEE10__dispatchB8ne180100IOZNS0_6__dtorINS0_8__traitsIJNS_10shared_ptrIN11__hlt_bench9Benchmark8WithUnitEEEPSB_EEELNS0_6_TraitE1EE9__destroyB8ne180100EvEUlRT_E_JRNS0_6__baseILSF_1EJSC_SD_EEEEEEDcSH_DpT0_, symObjAddr: 0xD330, symBinAddr: 0x100010980, symSize: 0x4 }
  - { offset: 0xF4B27, size: 0x8, addend: 0x0, symName: __ZNSt3__116__variant_detail12__visitation6__base12__dispatcherIJLm0ELm0EEE10__dispatchB8ne180100IOZNS0_6__ctorINS0_8__traitsIJNS_10shared_ptrIN11__hlt_bench9Benchmark8WithUnitEEEPSB_EEEE19__generic_constructB8ne180100INS0_18__move_constructorISE_LNS0_6_TraitE1EEEEEvRSF_OT_EUlRSL_OT0_E_JRNS0_6__baseILSI_1EJSC_SD_EEEOST_EEEDcSL_DpT0_, symObjAddr: 0xD334, symBinAddr: 0x100010984, symSize: 0x10 }
  - { offset: 0xF4B6B, size: 0x8, addend: 0x0, symName: __ZNSt3__116__variant_detail12__visitation6__base12__dispatcherIJLm0ELm0EEE10__dispatchB8ne180100IOZNS0_6__ctorINS0_8__traitsIJNS_10shared_ptrIN11__hlt_bench9Benchmark8WithUnitEEEPSB_EEEE19__generic_constructB8ne180100INS0_18__move_constructorISE_LNS0_6_TraitE1EEEEEvRSF_OT_EUlRSL_OT0_E_JRNS0_6__baseILSI_1EJSC_SD_EEEOST_EEEDcSL_DpT0_, symObjAddr: 0xD334, symBinAddr: 0x100010984, symSize: 0x10 }
  - { offset: 0xF4B95, size: 0x8, addend: 0x0, symName: __ZNSt3__116__variant_detail12__visitation6__base12__dispatcherIJLm0ELm0EEE10__dispatchB8ne180100IOZNS0_6__ctorINS0_8__traitsIJNS_10shared_ptrIN11__hlt_bench9Benchmark8WithUnitEEEPSB_EEEE19__generic_constructB8ne180100INS0_18__move_constructorISE_LNS0_6_TraitE1EEEEEvRSF_OT_EUlRSL_OT0_E_JRNS0_6__baseILSI_1EJSC_SD_EEEOST_EEEDcSL_DpT0_, symObjAddr: 0xD334, symBinAddr: 0x100010984, symSize: 0x10 }
  - { offset: 0xF4BBF, size: 0x8, addend: 0x0, symName: __ZNSt3__116__variant_detail12__visitation6__base12__dispatcherIJLm0ELm0EEE10__dispatchB8ne180100IOZNS0_6__ctorINS0_8__traitsIJNS_10shared_ptrIN11__hlt_bench9Benchmark8WithUnitEEEPSB_EEEE19__generic_constructB8ne180100INS0_18__move_constructorISE_LNS0_6_TraitE1EEEEEvRSF_OT_EUlRSL_OT0_E_JRNS0_6__baseILSI_1EJSC_SD_EEEOST_EEEDcSL_DpT0_, symObjAddr: 0xD334, symBinAddr: 0x100010984, symSize: 0x10 }
  - { offset: 0xF4BE2, size: 0x8, addend: 0x0, symName: __ZNSt3__116__variant_detail12__visitation6__base12__dispatcherIJLm0ELm0EEE10__dispatchB8ne180100IOZNS0_6__ctorINS0_8__traitsIJNS_10shared_ptrIN11__hlt_bench9Benchmark8WithUnitEEEPSB_EEEE19__generic_constructB8ne180100INS0_18__move_constructorISE_LNS0_6_TraitE1EEEEEvRSF_OT_EUlRSL_OT0_E_JRNS0_6__baseILSI_1EJSC_SD_EEEOST_EEEDcSL_DpT0_, symObjAddr: 0xD334, symBinAddr: 0x100010984, symSize: 0x10 }
  - { offset: 0xF4C05, size: 0x8, addend: 0x0, symName: __ZNSt3__116__variant_detail12__visitation6__base12__dispatcherIJLm0ELm0EEE10__dispatchB8ne180100IOZNS0_6__ctorINS0_8__traitsIJNS_10shared_ptrIN11__hlt_bench9Benchmark8WithUnitEEEPSB_EEEE19__generic_constructB8ne180100INS0_18__move_constructorISE_LNS0_6_TraitE1EEEEEvRSF_OT_EUlRSL_OT0_E_JRNS0_6__baseILSI_1EJSC_SD_EEEOST_EEEDcSL_DpT0_, symObjAddr: 0xD334, symBinAddr: 0x100010984, symSize: 0x10 }
  - { offset: 0xF4C28, size: 0x8, addend: 0x0, symName: __ZNSt3__116__variant_detail12__visitation6__base12__dispatcherIJLm0ELm0EEE10__dispatchB8ne180100IOZNS0_6__ctorINS0_8__traitsIJNS_10shared_ptrIN11__hlt_bench9Benchmark8WithUnitEEEPSB_EEEE19__generic_constructB8ne180100INS0_18__move_constructorISE_LNS0_6_TraitE1EEEEEvRSF_OT_EUlRSL_OT0_E_JRNS0_6__baseILSI_1EJSC_SD_EEEOST_EEEDcSL_DpT0_, symObjAddr: 0xD334, symBinAddr: 0x100010984, symSize: 0x10 }
  - { offset: 0xF4C4B, size: 0x8, addend: 0x0, symName: __ZNSt3__116__variant_detail12__visitation6__base12__dispatcherIJLm0ELm0EEE10__dispatchB8ne180100IOZNS0_6__ctorINS0_8__traitsIJNS_10shared_ptrIN11__hlt_bench9Benchmark8WithUnitEEEPSB_EEEE19__generic_constructB8ne180100INS0_18__move_constructorISE_LNS0_6_TraitE1EEEEEvRSF_OT_EUlRSL_OT0_E_JRNS0_6__baseILSI_1EJSC_SD_EEEOST_EEEDcSL_DpT0_, symObjAddr: 0xD334, symBinAddr: 0x100010984, symSize: 0x10 }
  - { offset: 0xF4D92, size: 0x8, addend: 0x0, symName: __ZNSt3__116__variant_detail12__visitation6__base12__dispatcherIJLm1ELm1EEE10__dispatchB8ne180100IOZNS0_6__ctorINS0_8__traitsIJNS_10shared_ptrIN11__hlt_bench9Benchmark8WithUnitEEEPSB_EEEE19__generic_constructB8ne180100INS0_18__move_constructorISE_LNS0_6_TraitE1EEEEEvRSF_OT_EUlRSL_OT0_E_JRNS0_6__baseILSI_1EJSC_SD_EEEOST_EEEDcSL_DpT0_, symObjAddr: 0xD344, symBinAddr: 0x100010994, symSize: 0xC }
  - { offset: 0xF4DD6, size: 0x8, addend: 0x0, symName: __ZNSt3__116__variant_detail12__visitation6__base12__dispatcherIJLm1ELm1EEE10__dispatchB8ne180100IOZNS0_6__ctorINS0_8__traitsIJNS_10shared_ptrIN11__hlt_bench9Benchmark8WithUnitEEEPSB_EEEE19__generic_constructB8ne180100INS0_18__move_constructorISE_LNS0_6_TraitE1EEEEEvRSF_OT_EUlRSL_OT0_E_JRNS0_6__baseILSI_1EJSC_SD_EEEOST_EEEDcSL_DpT0_, symObjAddr: 0xD344, symBinAddr: 0x100010994, symSize: 0xC }
  - { offset: 0xF4E00, size: 0x8, addend: 0x0, symName: __ZNSt3__116__variant_detail12__visitation6__base12__dispatcherIJLm1ELm1EEE10__dispatchB8ne180100IOZNS0_6__ctorINS0_8__traitsIJNS_10shared_ptrIN11__hlt_bench9Benchmark8WithUnitEEEPSB_EEEE19__generic_constructB8ne180100INS0_18__move_constructorISE_LNS0_6_TraitE1EEEEEvRSF_OT_EUlRSL_OT0_E_JRNS0_6__baseILSI_1EJSC_SD_EEEOST_EEEDcSL_DpT0_, symObjAddr: 0xD344, symBinAddr: 0x100010994, symSize: 0xC }
  - { offset: 0xF4E2A, size: 0x8, addend: 0x0, symName: __ZNSt3__116__variant_detail12__visitation6__base12__dispatcherIJLm1ELm1EEE10__dispatchB8ne180100IOZNS0_6__ctorINS0_8__traitsIJNS_10shared_ptrIN11__hlt_bench9Benchmark8WithUnitEEEPSB_EEEE19__generic_constructB8ne180100INS0_18__move_constructorISE_LNS0_6_TraitE1EEEEEvRSF_OT_EUlRSL_OT0_E_JRNS0_6__baseILSI_1EJSC_SD_EEEOST_EEEDcSL_DpT0_, symObjAddr: 0xD344, symBinAddr: 0x100010994, symSize: 0xC }
  - { offset: 0xF4E4D, size: 0x8, addend: 0x0, symName: __ZNSt3__116__variant_detail12__visitation6__base12__dispatcherIJLm1ELm1EEE10__dispatchB8ne180100IOZNS0_6__ctorINS0_8__traitsIJNS_10shared_ptrIN11__hlt_bench9Benchmark8WithUnitEEEPSB_EEEE19__generic_constructB8ne180100INS0_18__move_constructorISE_LNS0_6_TraitE1EEEEEvRSF_OT_EUlRSL_OT0_E_JRNS0_6__baseILSI_1EJSC_SD_EEEOST_EEEDcSL_DpT0_, symObjAddr: 0xD344, symBinAddr: 0x100010994, symSize: 0xC }
  - { offset: 0xF4E70, size: 0x8, addend: 0x0, symName: __ZNSt3__116__variant_detail12__visitation6__base12__dispatcherIJLm1ELm1EEE10__dispatchB8ne180100IOZNS0_6__ctorINS0_8__traitsIJNS_10shared_ptrIN11__hlt_bench9Benchmark8WithUnitEEEPSB_EEEE19__generic_constructB8ne180100INS0_18__move_constructorISE_LNS0_6_TraitE1EEEEEvRSF_OT_EUlRSL_OT0_E_JRNS0_6__baseILSI_1EJSC_SD_EEEOST_EEEDcSL_DpT0_, symObjAddr: 0xD344, symBinAddr: 0x100010994, symSize: 0xC }
  - { offset: 0xF5369, size: 0x8, addend: 0x0, symName: __ZNSt3__116__variant_detail12__visitation6__base12__dispatcherIJLm0EEE10__dispatchB8ne180100IOZNS0_6__dtorINS0_8__traitsIJNS_10shared_ptrIN5spicy2rt10ParsedUnitEEEPSB_EEELNS0_6_TraitE1EE9__destroyB8ne180100EvEUlRT_E_JRNS0_6__baseILSF_1EJSC_SD_EEEEEEDcSH_DpT0_, symObjAddr: 0xD4C0, symBinAddr: 0x100010B10, symSize: 0x50 }
  - { offset: 0xF54A9, size: 0x8, addend: 0x0, symName: __ZNSt3__116__variant_detail12__visitation6__base12__dispatcherIJLm1EEE10__dispatchB8ne180100IOZNS0_6__dtorINS0_8__traitsIJNS_10shared_ptrIN5spicy2rt10ParsedUnitEEEPSB_EEELNS0_6_TraitE1EE9__destroyB8ne180100EvEUlRT_E_JRNS0_6__baseILSF_1EJSC_SD_EEEEEEDcSH_DpT0_, symObjAddr: 0xD510, symBinAddr: 0x100010B60, symSize: 0x4 }
  - { offset: 0xF558A, size: 0x8, addend: 0x0, symName: __ZNSt3__116__variant_detail12__visitation6__base12__dispatcherIJLm0ELm0EEE10__dispatchB8ne180100IOZNS0_6__ctorINS0_8__traitsIJNS_10shared_ptrIN5spicy2rt10ParsedUnitEEEPSB_EEEE19__generic_constructB8ne180100INS0_18__move_constructorISE_LNS0_6_TraitE1EEEEEvRSF_OT_EUlRSL_OT0_E_JRNS0_6__baseILSI_1EJSC_SD_EEEOST_EEEDcSL_DpT0_, symObjAddr: 0xD514, symBinAddr: 0x100010B64, symSize: 0x10 }
  - { offset: 0xF55CE, size: 0x8, addend: 0x0, symName: __ZNSt3__116__variant_detail12__visitation6__base12__dispatcherIJLm0ELm0EEE10__dispatchB8ne180100IOZNS0_6__ctorINS0_8__traitsIJNS_10shared_ptrIN5spicy2rt10ParsedUnitEEEPSB_EEEE19__generic_constructB8ne180100INS0_18__move_constructorISE_LNS0_6_TraitE1EEEEEvRSF_OT_EUlRSL_OT0_E_JRNS0_6__baseILSI_1EJSC_SD_EEEOST_EEEDcSL_DpT0_, symObjAddr: 0xD514, symBinAddr: 0x100010B64, symSize: 0x10 }
  - { offset: 0xF55F8, size: 0x8, addend: 0x0, symName: __ZNSt3__116__variant_detail12__visitation6__base12__dispatcherIJLm0ELm0EEE10__dispatchB8ne180100IOZNS0_6__ctorINS0_8__traitsIJNS_10shared_ptrIN5spicy2rt10ParsedUnitEEEPSB_EEEE19__generic_constructB8ne180100INS0_18__move_constructorISE_LNS0_6_TraitE1EEEEEvRSF_OT_EUlRSL_OT0_E_JRNS0_6__baseILSI_1EJSC_SD_EEEOST_EEEDcSL_DpT0_, symObjAddr: 0xD514, symBinAddr: 0x100010B64, symSize: 0x10 }
  - { offset: 0xF5622, size: 0x8, addend: 0x0, symName: __ZNSt3__116__variant_detail12__visitation6__base12__dispatcherIJLm0ELm0EEE10__dispatchB8ne180100IOZNS0_6__ctorINS0_8__traitsIJNS_10shared_ptrIN5spicy2rt10ParsedUnitEEEPSB_EEEE19__generic_constructB8ne180100INS0_18__move_constructorISE_LNS0_6_TraitE1EEEEEvRSF_OT_EUlRSL_OT0_E_JRNS0_6__baseILSI_1EJSC_SD_EEEOST_EEEDcSL_DpT0_, symObjAddr: 0xD514, symBinAddr: 0x100010B64, symSize: 0x10 }
  - { offset: 0xF5645, size: 0x8, addend: 0x0, symName: __ZNSt3__116__variant_detail12__visitation6__base12__dispatcherIJLm0ELm0EEE10__dispatchB8ne180100IOZNS0_6__ctorINS0_8__traitsIJNS_10shared_ptrIN5spicy2rt10ParsedUnitEEEPSB_EEEE19__generic_constructB8ne180100INS0_18__move_constructorISE_LNS0_6_TraitE1EEEEEvRSF_OT_EUlRSL_OT0_E_JRNS0_6__baseILSI_1EJSC_SD_EEEOST_EEEDcSL_DpT0_, symObjAddr: 0xD514, symBinAddr: 0x100010B64, symSize: 0x10 }
  - { offset: 0xF5668, size: 0x8, addend: 0x0, symName: __ZNSt3__116__variant_detail12__visitation6__base12__dispatcherIJLm0ELm0EEE10__dispatchB8ne180100IOZNS0_6__ctorINS0_8__traitsIJNS_10shared_ptrIN5spicy2rt10ParsedUnitEEEPSB_EEEE19__generic_constructB8ne180100INS0_18__move_constructorISE_LNS0_6_TraitE1EEEEEvRSF_OT_EUlRSL_OT0_E_JRNS0_6__baseILSI_1EJSC_SD_EEEOST_EEEDcSL_DpT0_, symObjAddr: 0xD514, symBinAddr: 0x100010B64, symSize: 0x10 }
  - { offset: 0xF568B, size: 0x8, addend: 0x0, symName: __ZNSt3__116__variant_detail12__visitation6__base12__dispatcherIJLm0ELm0EEE10__dispatchB8ne180100IOZNS0_6__ctorINS0_8__traitsIJNS_10shared_ptrIN5spicy2rt10ParsedUnitEEEPSB_EEEE19__generic_constructB8ne180100INS0_18__move_constructorISE_LNS0_6_TraitE1EEEEEvRSF_OT_EUlRSL_OT0_E_JRNS0_6__baseILSI_1EJSC_SD_EEEOST_EEEDcSL_DpT0_, symObjAddr: 0xD514, symBinAddr: 0x100010B64, symSize: 0x10 }
  - { offset: 0xF56AE, size: 0x8, addend: 0x0, symName: __ZNSt3__116__variant_detail12__visitation6__base12__dispatcherIJLm0ELm0EEE10__dispatchB8ne180100IOZNS0_6__ctorINS0_8__traitsIJNS_10shared_ptrIN5spicy2rt10ParsedUnitEEEPSB_EEEE19__generic_constructB8ne180100INS0_18__move_constructorISE_LNS0_6_TraitE1EEEEEvRSF_OT_EUlRSL_OT0_E_JRNS0_6__baseILSI_1EJSC_SD_EEEOST_EEEDcSL_DpT0_, symObjAddr: 0xD514, symBinAddr: 0x100010B64, symSize: 0x10 }
  - { offset: 0xF5807, size: 0x8, addend: 0x0, symName: __ZNSt3__116__variant_detail12__visitation6__base12__dispatcherIJLm1ELm1EEE10__dispatchB8ne180100IOZNS0_6__ctorINS0_8__traitsIJNS_10shared_ptrIN5spicy2rt10ParsedUnitEEEPSB_EEEE19__generic_constructB8ne180100INS0_18__move_constructorISE_LNS0_6_TraitE1EEEEEvRSF_OT_EUlRSL_OT0_E_JRNS0_6__baseILSI_1EJSC_SD_EEEOST_EEEDcSL_DpT0_, symObjAddr: 0xD524, symBinAddr: 0x100010B74, symSize: 0xC }
  - { offset: 0xF584B, size: 0x8, addend: 0x0, symName: __ZNSt3__116__variant_detail12__visitation6__base12__dispatcherIJLm1ELm1EEE10__dispatchB8ne180100IOZNS0_6__ctorINS0_8__traitsIJNS_10shared_ptrIN5spicy2rt10ParsedUnitEEEPSB_EEEE19__generic_constructB8ne180100INS0_18__move_constructorISE_LNS0_6_TraitE1EEEEEvRSF_OT_EUlRSL_OT0_E_JRNS0_6__baseILSI_1EJSC_SD_EEEOST_EEEDcSL_DpT0_, symObjAddr: 0xD524, symBinAddr: 0x100010B74, symSize: 0xC }
  - { offset: 0xF5875, size: 0x8, addend: 0x0, symName: __ZNSt3__116__variant_detail12__visitation6__base12__dispatcherIJLm1ELm1EEE10__dispatchB8ne180100IOZNS0_6__ctorINS0_8__traitsIJNS_10shared_ptrIN5spicy2rt10ParsedUnitEEEPSB_EEEE19__generic_constructB8ne180100INS0_18__move_constructorISE_LNS0_6_TraitE1EEEEEvRSF_OT_EUlRSL_OT0_E_JRNS0_6__baseILSI_1EJSC_SD_EEEOST_EEEDcSL_DpT0_, symObjAddr: 0xD524, symBinAddr: 0x100010B74, symSize: 0xC }
  - { offset: 0xF589F, size: 0x8, addend: 0x0, symName: __ZNSt3__116__variant_detail12__visitation6__base12__dispatcherIJLm1ELm1EEE10__dispatchB8ne180100IOZNS0_6__ctorINS0_8__traitsIJNS_10shared_ptrIN5spicy2rt10ParsedUnitEEEPSB_EEEE19__generic_constructB8ne180100INS0_18__move_constructorISE_LNS0_6_TraitE1EEEEEvRSF_OT_EUlRSL_OT0_E_JRNS0_6__baseILSI_1EJSC_SD_EEEOST_EEEDcSL_DpT0_, symObjAddr: 0xD524, symBinAddr: 0x100010B74, symSize: 0xC }
  - { offset: 0xF58C2, size: 0x8, addend: 0x0, symName: __ZNSt3__116__variant_detail12__visitation6__base12__dispatcherIJLm1ELm1EEE10__dispatchB8ne180100IOZNS0_6__ctorINS0_8__traitsIJNS_10shared_ptrIN5spicy2rt10ParsedUnitEEEPSB_EEEE19__generic_constructB8ne180100INS0_18__move_constructorISE_LNS0_6_TraitE1EEEEEvRSF_OT_EUlRSL_OT0_E_JRNS0_6__baseILSI_1EJSC_SD_EEEOST_EEEDcSL_DpT0_, symObjAddr: 0xD524, symBinAddr: 0x100010B74, symSize: 0xC }
  - { offset: 0xF58E5, size: 0x8, addend: 0x0, symName: __ZNSt3__116__variant_detail12__visitation6__base12__dispatcherIJLm1ELm1EEE10__dispatchB8ne180100IOZNS0_6__ctorINS0_8__traitsIJNS_10shared_ptrIN5spicy2rt10ParsedUnitEEEPSB_EEEE19__generic_constructB8ne180100INS0_18__move_constructorISE_LNS0_6_TraitE1EEEEEvRSF_OT_EUlRSL_OT0_E_JRNS0_6__baseILSI_1EJSC_SD_EEEOST_EEEDcSL_DpT0_, symObjAddr: 0xD524, symBinAddr: 0x100010B74, symSize: 0xC }
  - { offset: 0xF59A5, size: 0x8, addend: 0x0, symName: __ZNSt3__116__variant_detail12__visitation6__base12__dispatcherIJLm0EEE10__dispatchB8ne180100IOZNS0_6__dtorINS0_8__traitsIJNS_10shared_ptrIN11__hlt_bench9Benchmark5InnerEEEPSB_EEELNS0_6_TraitE1EE9__destroyB8ne180100EvEUlRT_E_JRNS0_6__baseILSF_1EJSC_SD_EEEEEEDcSH_DpT0_, symObjAddr: 0xD530, symBinAddr: 0x100010B80, symSize: 0x50 }
  - { offset: 0xF5AE5, size: 0x8, addend: 0x0, symName: __ZNSt3__116__variant_detail12__visitation6__base12__dispatcherIJLm1EEE10__dispatchB8ne180100IOZNS0_6__dtorINS0_8__traitsIJNS_10shared_ptrIN11__hlt_bench9Benchmark5InnerEEEPSB_EEELNS0_6_TraitE1EE9__destroyB8ne180100EvEUlRT_E_JRNS0_6__baseILSF_1EJSC_SD_EEEEEEDcSH_DpT0_, symObjAddr: 0xD580, symBinAddr: 0x100010BD0, symSize: 0x4 }
  - { offset: 0xF61CC, size: 0x8, addend: 0x0, symName: __ZN5hilti2rt9to_stringIRKNSt3__18optionalINS0_5BytesEEEEENS2_12basic_stringIcNS2_11char_traitsIcEENS2_9allocatorIcEEEEOT_.cold.1, symObjAddr: 0x11D40, symBinAddr: 0x10005845C, symSize: 0x7C }
  - { offset: 0xF6574, size: 0x8, addend: 0x0, symName: __ZNSt3__16vectorIN11__hlt_bench9Benchmark5InnerENS_9allocatorIS3_EEEC2ERKS6_.cold.1, symObjAddr: 0x11DBC, symBinAddr: 0x1000584D8, symSize: 0x54 }
  - { offset: 0xF6AC2, size: 0x8, addend: 0x0, symName: __ZN5hilti2rt10WouldBlockCI1St13runtime_errorEPKc, symObjAddr: 0xF29C, symBinAddr: 0x100011020, symSize: 0x20 }
  - { offset: 0xF6B5F, size: 0x8, addend: 0x0, symName: __ZN5hilti2rt10WouldBlockD1Ev, symObjAddr: 0xF2BC, symBinAddr: 0x100011040, symSize: 0x4 }
  - { offset: 0xF6B81, size: 0x8, addend: 0x0, symName: __ZN5hilti2rt10WouldBlockD1Ev, symObjAddr: 0xF2BC, symBinAddr: 0x100011040, symSize: 0x4 }
  - { offset: 0xF6BB7, size: 0x8, addend: 0x0, symName: __ZN5hilti2rt10WouldBlockD0Ev, symObjAddr: 0xF2C0, symBinAddr: 0x100011044, symSize: 0x14 }
  - { offset: 0xF6CA7, size: 0x8, addend: 0x0, symName: __ZN5hilti2rt6result8NoResultD1Ev, symObjAddr: 0xF3FC, symBinAddr: 0x100011180, symSize: 0x64 }
  - { offset: 0xF6FAF, size: 0x8, addend: 0x0, symName: __ZNSt18bad_variant_accessD1Ev, symObjAddr: 0xF494, symBinAddr: 0x100011218, symSize: 0x4 }
  - { offset: 0xF6FDD, size: 0x8, addend: 0x0, symName: __ZNSt18bad_variant_accessD1Ev, symObjAddr: 0xF494, symBinAddr: 0x100011218, symSize: 0x4 }
  - { offset: 0xF7014, size: 0x8, addend: 0x0, symName: __ZN5hilti2rt6result8NoResultD0Ev, symObjAddr: 0xF498, symBinAddr: 0x10001121C, symSize: 0x6C }
  - { offset: 0xF743F, size: 0x8, addend: 0x0, symName: __ZNSt3__123__optional_storage_baseIN5hilti2rt9BacktraceELb0EE13__assign_fromB8ne180100IRKNS_27__optional_copy_assign_baseIS3_Lb0EEEEEvOT_, symObjAddr: 0xF614, symBinAddr: 0x100011398, symSize: 0x120 }
  - { offset: 0xF7A52, size: 0x8, addend: 0x0, symName: __ZNSt3__120__shared_ptr_emplaceIN11__hlt_bench9Benchmark5InnerENS_9allocatorIS3_EEED1Ev, symObjAddr: 0xFA18, symBinAddr: 0x10001179C, symSize: 0x10 }
  - { offset: 0xF7A74, size: 0x8, addend: 0x0, symName: __ZNSt3__120__shared_ptr_emplaceIN11__hlt_bench9Benchmark5InnerENS_9allocatorIS3_EEED1Ev, symObjAddr: 0xFA18, symBinAddr: 0x10001179C, symSize: 0x10 }
  - { offset: 0xF7AAA, size: 0x8, addend: 0x0, symName: __ZNSt3__120__shared_ptr_emplaceIN11__hlt_bench9Benchmark5InnerENS_9allocatorIS3_EEED0Ev, symObjAddr: 0xFA28, symBinAddr: 0x1000117AC, symSize: 0x20 }
  - { offset: 0xF7B4C, size: 0x8, addend: 0x0, symName: __ZNSt3__120__shared_ptr_emplaceIN11__hlt_bench9Benchmark5InnerENS_9allocatorIS3_EEE16__on_zero_sharedEv, symObjAddr: 0xFA48, symBinAddr: 0x1000117CC, symSize: 0x40 }
  - { offset: 0xF7D77, size: 0x8, addend: 0x0, symName: __ZNSt3__120__shared_ptr_emplaceIN11__hlt_bench9Benchmark5InnerENS_9allocatorIS3_EEE21__on_zero_shared_weakEv, symObjAddr: 0xFA88, symBinAddr: 0x10001180C, symSize: 0x4 }
  - { offset: 0xF7DAB, size: 0x8, addend: 0x0, symName: __ZNSt3__120__shared_ptr_emplaceIN11__hlt_bench9Benchmark5InnerENS_9allocatorIS3_EEE21__on_zero_shared_weakEv, symObjAddr: 0xFA88, symBinAddr: 0x10001180C, symSize: 0x4 }
  - { offset: 0xF7DCD, size: 0x8, addend: 0x0, symName: __ZNSt3__120__shared_ptr_emplaceIN11__hlt_bench9Benchmark5InnerENS_9allocatorIS3_EEE21__on_zero_shared_weakEv, symObjAddr: 0xFA88, symBinAddr: 0x10001180C, symSize: 0x4 }
  - { offset: 0xF7DEF, size: 0x8, addend: 0x0, symName: __ZNSt3__120__shared_ptr_emplaceIN11__hlt_bench9Benchmark5InnerENS_9allocatorIS3_EEE21__on_zero_shared_weakEv, symObjAddr: 0xFA88, symBinAddr: 0x10001180C, symSize: 0x4 }
  - { offset: 0xF7E1C, size: 0x8, addend: 0x0, symName: __ZNSt3__120__shared_ptr_emplaceIN11__hlt_bench9Benchmark5InnerENS_9allocatorIS3_EEE21__on_zero_shared_weakEv, symObjAddr: 0xFA88, symBinAddr: 0x10001180C, symSize: 0x4 }
  - { offset: 0xF7E44, size: 0x8, addend: 0x0, symName: __ZNSt3__120__shared_ptr_emplaceIN11__hlt_bench9Benchmark5InnerENS_9allocatorIS3_EEE21__on_zero_shared_weakEv, symObjAddr: 0xFA88, symBinAddr: 0x10001180C, symSize: 0x4 }
  - { offset: 0xF80CA, size: 0x8, addend: 0x0, symName: __ZNSt3__114__split_bufferIN11__hlt_bench9Benchmark5InnerERNS_9allocatorIS3_EEED1Ev, symObjAddr: 0xFD2C, symBinAddr: 0x100011AB0, symSize: 0x70 }
  - { offset: 0xF843D, size: 0x8, addend: 0x0, symName: __ZNSt3__128__exception_guard_exceptionsINS_29_AllocatorDestroyRangeReverseINS_9allocatorIN11__hlt_bench9Benchmark5InnerEEENS_16reverse_iteratorIPS5_EEEEED1B8ne180100Ev, symObjAddr: 0xFEB8, symBinAddr: 0x100011C3C, symSize: 0x6C }
  - { offset: 0xF8ED7, size: 0x8, addend: 0x0, symName: __ZNSt3__120__shared_ptr_emplaceIN11__hlt_bench9Benchmark8WithUnitENS_9allocatorIS3_EEED1Ev, symObjAddr: 0x10164, symBinAddr: 0x100011EE8, symSize: 0x10 }
  - { offset: 0xF8EF9, size: 0x8, addend: 0x0, symName: __ZNSt3__120__shared_ptr_emplaceIN11__hlt_bench9Benchmark8WithUnitENS_9allocatorIS3_EEED1Ev, symObjAddr: 0x10164, symBinAddr: 0x100011EE8, symSize: 0x10 }
  - { offset: 0xF8F2F, size: 0x8, addend: 0x0, symName: __ZNSt3__120__shared_ptr_emplaceIN11__hlt_bench9Benchmark8WithUnitENS_9allocatorIS3_EEED0Ev, symObjAddr: 0x10174, symBinAddr: 0x100011EF8, symSize: 0x20 }
  - { offset: 0xF9012, size: 0x8, addend: 0x0, symName: __ZNSt3__120__shared_ptr_emplaceIN11__hlt_bench9Benchmark8WithUnitENS_9allocatorIS3_EEE16__on_zero_sharedEv, symObjAddr: 0x10194, symBinAddr: 0x100011F18, symSize: 0x24 }
  - { offset: 0xF90B7, size: 0x8, addend: 0x0, symName: __ZNSt3__19allocatorIN11__hlt_bench9Benchmark8WithUnitEE7destroyB8ne180100EPS3_, symObjAddr: 0x101BC, symBinAddr: 0x100011F40, symSize: 0xA8 }
  - { offset: 0xF954F, size: 0x8, addend: 0x0, symName: __ZNSt3__120__shared_ptr_emplaceIN11__hlt_bench9Benchmark8WithUnitENS_9allocatorIS3_EEE21__on_zero_shared_weakEv, symObjAddr: 0x101B8, symBinAddr: 0x100011F3C, symSize: 0x4 }
  - { offset: 0xF9583, size: 0x8, addend: 0x0, symName: __ZNSt3__120__shared_ptr_emplaceIN11__hlt_bench9Benchmark8WithUnitENS_9allocatorIS3_EEE21__on_zero_shared_weakEv, symObjAddr: 0x101B8, symBinAddr: 0x100011F3C, symSize: 0x4 }
  - { offset: 0xF95A5, size: 0x8, addend: 0x0, symName: __ZNSt3__120__shared_ptr_emplaceIN11__hlt_bench9Benchmark8WithUnitENS_9allocatorIS3_EEE21__on_zero_shared_weakEv, symObjAddr: 0x101B8, symBinAddr: 0x100011F3C, symSize: 0x4 }
  - { offset: 0xF95C7, size: 0x8, addend: 0x0, symName: __ZNSt3__120__shared_ptr_emplaceIN11__hlt_bench9Benchmark8WithUnitENS_9allocatorIS3_EEE21__on_zero_shared_weakEv, symObjAddr: 0x101B8, symBinAddr: 0x100011F3C, symSize: 0x4 }
  - { offset: 0xF95F2, size: 0x8, addend: 0x0, symName: __ZNSt3__120__shared_ptr_emplaceIN11__hlt_bench9Benchmark8WithUnitENS_9allocatorIS3_EEE21__on_zero_shared_weakEv, symObjAddr: 0x101B8, symBinAddr: 0x100011F3C, symSize: 0x4 }
  - { offset: 0xF9618, size: 0x8, addend: 0x0, symName: __ZNSt3__120__shared_ptr_emplaceIN11__hlt_bench9Benchmark8WithUnitENS_9allocatorIS3_EEE21__on_zero_shared_weakEv, symObjAddr: 0x101B8, symBinAddr: 0x100011F3C, symSize: 0x4 }
  - { offset: 0xF97CD, size: 0x8, addend: 0x0, symName: __ZN4linb3any12vtable_stackIN5hilti2rt15StrongReferenceIN11__hlt_bench9Benchmark8WithUnitEEEE4typeEv, symObjAddr: 0x1042C, symBinAddr: 0x1000121B0, symSize: 0xC }
  - { offset: 0xF97E1, size: 0x8, addend: 0x0, symName: __ZN4linb3any12vtable_stackIN5hilti2rt15StrongReferenceIN11__hlt_bench9Benchmark8WithUnitEEEE7destroyERNS0_13storage_unionE, symObjAddr: 0x10438, symBinAddr: 0x1000121BC, symSize: 0x50 }
  - { offset: 0xF98F2, size: 0x8, addend: 0x0, symName: __ZN4linb3any12vtable_stackIN5hilti2rt15StrongReferenceIN11__hlt_bench9Benchmark8WithUnitEEEE4copyERKNS0_13storage_unionERSA_, symObjAddr: 0x10488, symBinAddr: 0x10001220C, symSize: 0x1C }
  - { offset: 0xF9927, size: 0x8, addend: 0x0, symName: __ZN4linb3any12vtable_stackIN5hilti2rt15StrongReferenceIN11__hlt_bench9Benchmark8WithUnitEEEE4copyERKNS0_13storage_unionERSA_, symObjAddr: 0x10488, symBinAddr: 0x10001220C, symSize: 0x1C }
  - { offset: 0xF994A, size: 0x8, addend: 0x0, symName: __ZN4linb3any12vtable_stackIN5hilti2rt15StrongReferenceIN11__hlt_bench9Benchmark8WithUnitEEEE4copyERKNS0_13storage_unionERSA_, symObjAddr: 0x10488, symBinAddr: 0x10001220C, symSize: 0x1C }
  - { offset: 0xF996D, size: 0x8, addend: 0x0, symName: __ZN4linb3any12vtable_stackIN5hilti2rt15StrongReferenceIN11__hlt_bench9Benchmark8WithUnitEEEE4copyERKNS0_13storage_unionERSA_, symObjAddr: 0x10488, symBinAddr: 0x10001220C, symSize: 0x1C }
  - { offset: 0xF99EA, size: 0x8, addend: 0x0, symName: __ZN4linb3any12vtable_stackIN5hilti2rt15StrongReferenceIN11__hlt_bench9Benchmark8WithUnitEEEE4moveERNS0_13storage_unionESB_, symObjAddr: 0x104A4, symBinAddr: 0x100012228, symSize: 0x10 }
  - { offset: 0xF9A0F, size: 0x8, addend: 0x0, symName: __ZN4linb3any12vtable_stackIN5hilti2rt15StrongReferenceIN11__hlt_bench9Benchmark8WithUnitEEEE4moveERNS0_13storage_unionESB_, symObjAddr: 0x104A4, symBinAddr: 0x100012228, symSize: 0x10 }
  - { offset: 0xF9A32, size: 0x8, addend: 0x0, symName: __ZN4linb3any12vtable_stackIN5hilti2rt15StrongReferenceIN11__hlt_bench9Benchmark8WithUnitEEEE4moveERNS0_13storage_unionESB_, symObjAddr: 0x104A4, symBinAddr: 0x100012228, symSize: 0x10 }
  - { offset: 0xF9A55, size: 0x8, addend: 0x0, symName: __ZN4linb3any12vtable_stackIN5hilti2rt15StrongReferenceIN11__hlt_bench9Benchmark8WithUnitEEEE4moveERNS0_13storage_unionESB_, symObjAddr: 0x104A4, symBinAddr: 0x100012228, symSize: 0x10 }
  - { offset: 0xF9A99, size: 0x8, addend: 0x0, symName: __ZN4linb3any12vtable_stackIN5hilti2rt15StrongReferenceIN11__hlt_bench9Benchmark8WithUnitEEEE4swapERNS0_13storage_unionESB_, symObjAddr: 0x104B4, symBinAddr: 0x100012238, symSize: 0x18 }
  - { offset: 0xF9ADE, size: 0x8, addend: 0x0, symName: __ZN4linb3any12vtable_stackIN5hilti2rt15StrongReferenceIN11__hlt_bench9Benchmark8WithUnitEEEE4swapERNS0_13storage_unionESB_, symObjAddr: 0x104B4, symBinAddr: 0x100012238, symSize: 0x18 }
  - { offset: 0xF9AFA, size: 0x8, addend: 0x0, symName: __ZN4linb3any12vtable_stackIN5hilti2rt15StrongReferenceIN11__hlt_bench9Benchmark8WithUnitEEEE4swapERNS0_13storage_unionESB_, symObjAddr: 0x104B4, symBinAddr: 0x100012238, symSize: 0x18 }
  - { offset: 0xF9B16, size: 0x8, addend: 0x0, symName: __ZN4linb3any12vtable_stackIN5hilti2rt15StrongReferenceIN11__hlt_bench9Benchmark8WithUnitEEEE4swapERNS0_13storage_unionESB_, symObjAddr: 0x104B4, symBinAddr: 0x100012238, symSize: 0x18 }
  - { offset: 0xF9B32, size: 0x8, addend: 0x0, symName: __ZN4linb3any12vtable_stackIN5hilti2rt15StrongReferenceIN11__hlt_bench9Benchmark8WithUnitEEEE4swapERNS0_13storage_unionESB_, symObjAddr: 0x104B4, symBinAddr: 0x100012238, symSize: 0x18 }
  - { offset: 0xF9E5A, size: 0x8, addend: 0x0, symName: __ZNSt3__135__uninitialized_allocator_copy_implB8ne180100INS_9allocatorIN5spicy2rt8MIMETypeEEEPKS4_S7_PS4_EET2_RT_T0_T1_S9_, symObjAddr: 0x105AC, symBinAddr: 0x10001231C, symSize: 0x100 }
  - { offset: 0xF9E65, size: 0x8, addend: 0x0, symName: __ZN5hilti2rt6VectorIN5spicy2rt8MIMETypeENSt3__19allocatorIS4_EEEC2ESt16initializer_listIS4_ERKS7_.cold.1, symObjAddr: 0x11E10, symBinAddr: 0x10005852C, symSize: 0x58 }
  - { offset: 0xFA1F1, size: 0x8, addend: 0x0, symName: __ZNSt3__128__exception_guard_exceptionsINS_29_AllocatorDestroyRangeReverseINS_9allocatorIN5spicy2rt8MIMETypeEEEPS5_EEED1B8ne180100Ev, symObjAddr: 0x106AC, symBinAddr: 0x10001241C, symSize: 0x7C }
  - { offset: 0xFA51A, size: 0x8, addend: 0x0, symName: __ZN4linb3any12vtable_stackIPFN5hilti2rt9ResumableERNS3_14ValueReferenceIN11__hlt_bench9Benchmark8WithUnitEEERNS5_INS3_6StreamEEERKNSt3__18optionalINS3_6stream4ViewEEERKNSF_IN5spicy2rt11UnitContextEEEEE4typeEv, symObjAddr: 0x10728, symBinAddr: 0x100012498, symSize: 0xC }
  - { offset: 0xFA52E, size: 0x8, addend: 0x0, symName: __ZN4linb3any12vtable_stackIPFN5hilti2rt9ResumableERNS3_14ValueReferenceIN11__hlt_bench9Benchmark8WithUnitEEERNS5_INS3_6StreamEEERKNSt3__18optionalINS3_6stream4ViewEEERKNSF_IN5spicy2rt11UnitContextEEEEE7destroyERNS0_13storage_unionE, symObjAddr: 0x10734, symBinAddr: 0x1000124A4, symSize: 0x4 }
  - { offset: 0xFA552, size: 0x8, addend: 0x0, symName: __ZN4linb3any12vtable_stackIPFN5hilti2rt9ResumableERNS3_14ValueReferenceIN11__hlt_bench9Benchmark8WithUnitEEERNS5_INS3_6StreamEEERKNSt3__18optionalINS3_6stream4ViewEEERKNSF_IN5spicy2rt11UnitContextEEEEE4copyERKNS0_13storage_unionERSU_, symObjAddr: 0x10738, symBinAddr: 0x1000124A8, symSize: 0xC }
  - { offset: 0xFA585, size: 0x8, addend: 0x0, symName: __ZN4linb3any12vtable_stackIPFN5hilti2rt9ResumableERNS3_14ValueReferenceIN11__hlt_bench9Benchmark8WithUnitEEERNS5_INS3_6StreamEEERKNSt3__18optionalINS3_6stream4ViewEEERKNSF_IN5spicy2rt11UnitContextEEEEE4moveERNS0_13storage_unionESV_, symObjAddr: 0x10744, symBinAddr: 0x1000124B4, symSize: 0xC }
  - { offset: 0xFA5C8, size: 0x8, addend: 0x0, symName: __ZN4linb3any12vtable_stackIPFN5hilti2rt9ResumableERNS3_14ValueReferenceIN11__hlt_bench9Benchmark8WithUnitEEERNS5_INS3_6StreamEEERKNSt3__18optionalINS3_6stream4ViewEEERKNSF_IN5spicy2rt11UnitContextEEEEE4swapERNS0_13storage_unionESV_, symObjAddr: 0x10750, symBinAddr: 0x1000124C0, symSize: 0x14 }
  - { offset: 0xFA60D, size: 0x8, addend: 0x0, symName: __ZN4linb3any12vtable_stackIPFN5hilti2rt9ResumableERNS3_14ValueReferenceIN11__hlt_bench9Benchmark8WithUnitEEERNS5_INS3_6StreamEEERKNSt3__18optionalINS3_6stream4ViewEEERKNSF_IN5spicy2rt11UnitContextEEEEE4swapERNS0_13storage_unionESV_, symObjAddr: 0x10750, symBinAddr: 0x1000124C0, symSize: 0x14 }
  - { offset: 0xFA6F5, size: 0x8, addend: 0x0, symName: __ZNSt3__120__shared_ptr_emplaceINS_5tupleIJN5hilti2rt14ValueReferenceINS3_6StreamEEENS_8optionalINS3_6stream4ViewEEENS7_IN5spicy2rt11UnitContextEEEEEENS_9allocatorISF_EEED1Ev, symObjAddr: 0x10900, symBinAddr: 0x10001265C, symSize: 0x10 }
  - { offset: 0xFA717, size: 0x8, addend: 0x0, symName: __ZNSt3__120__shared_ptr_emplaceINS_5tupleIJN5hilti2rt14ValueReferenceINS3_6StreamEEENS_8optionalINS3_6stream4ViewEEENS7_IN5spicy2rt11UnitContextEEEEEENS_9allocatorISF_EEED1Ev, symObjAddr: 0x10900, symBinAddr: 0x10001265C, symSize: 0x10 }
  - { offset: 0xFA74D, size: 0x8, addend: 0x0, symName: __ZNSt3__120__shared_ptr_emplaceINS_5tupleIJN5hilti2rt14ValueReferenceINS3_6StreamEEENS_8optionalINS3_6stream4ViewEEENS7_IN5spicy2rt11UnitContextEEEEEENS_9allocatorISF_EEED0Ev, symObjAddr: 0x10910, symBinAddr: 0x10001266C, symSize: 0x20 }
  - { offset: 0xFA83B, size: 0x8, addend: 0x0, symName: __ZNSt3__120__shared_ptr_emplaceINS_5tupleIJN5hilti2rt14ValueReferenceINS3_6StreamEEENS_8optionalINS3_6stream4ViewEEENS7_IN5spicy2rt11UnitContextEEEEEENS_9allocatorISF_EEE16__on_zero_sharedEv, symObjAddr: 0x10930, symBinAddr: 0x10001268C, symSize: 0x74 }
  - { offset: 0xFAD1B, size: 0x8, addend: 0x0, symName: __ZNSt3__120__shared_ptr_emplaceINS_5tupleIJN5hilti2rt14ValueReferenceINS3_6StreamEEENS_8optionalINS3_6stream4ViewEEENS7_IN5spicy2rt11UnitContextEEEEEENS_9allocatorISF_EEE21__on_zero_shared_weakEv, symObjAddr: 0x109A4, symBinAddr: 0x100012700, symSize: 0x4 }
  - { offset: 0xFAD4F, size: 0x8, addend: 0x0, symName: __ZNSt3__120__shared_ptr_emplaceINS_5tupleIJN5hilti2rt14ValueReferenceINS3_6StreamEEENS_8optionalINS3_6stream4ViewEEENS7_IN5spicy2rt11UnitContextEEEEEENS_9allocatorISF_EEE21__on_zero_shared_weakEv, symObjAddr: 0x109A4, symBinAddr: 0x100012700, symSize: 0x4 }
  - { offset: 0xFAD71, size: 0x8, addend: 0x0, symName: __ZNSt3__120__shared_ptr_emplaceINS_5tupleIJN5hilti2rt14ValueReferenceINS3_6StreamEEENS_8optionalINS3_6stream4ViewEEENS7_IN5spicy2rt11UnitContextEEEEEENS_9allocatorISF_EEE21__on_zero_shared_weakEv, symObjAddr: 0x109A4, symBinAddr: 0x100012700, symSize: 0x4 }
  - { offset: 0xFAD93, size: 0x8, addend: 0x0, symName: __ZNSt3__120__shared_ptr_emplaceINS_5tupleIJN5hilti2rt14ValueReferenceINS3_6StreamEEENS_8optionalINS3_6stream4ViewEEENS7_IN5spicy2rt11UnitContextEEEEEENS_9allocatorISF_EEE21__on_zero_shared_weakEv, symObjAddr: 0x109A4, symBinAddr: 0x100012700, symSize: 0x4 }
  - { offset: 0xFADC0, size: 0x8, addend: 0x0, symName: __ZNSt3__120__shared_ptr_emplaceINS_5tupleIJN5hilti2rt14ValueReferenceINS3_6StreamEEENS_8optionalINS3_6stream4ViewEEENS7_IN5spicy2rt11UnitContextEEEEEENS_9allocatorISF_EEE21__on_zero_shared_weakEv, symObjAddr: 0x109A4, symBinAddr: 0x100012700, symSize: 0x4 }
  - { offset: 0xFADE8, size: 0x8, addend: 0x0, symName: __ZNSt3__120__shared_ptr_emplaceINS_5tupleIJN5hilti2rt14ValueReferenceINS3_6StreamEEENS_8optionalINS3_6stream4ViewEEENS7_IN5spicy2rt11UnitContextEEEEEENS_9allocatorISF_EEE21__on_zero_shared_weakEv, symObjAddr: 0x109A4, symBinAddr: 0x100012700, symSize: 0x4 }
  - { offset: 0xFB0B6, size: 0x8, addend: 0x0, symName: __ZNSt3__123__optional_storage_baseIN4linb3anyELb0EE13__assign_fromB8ne180100INS_27__optional_move_assign_baseIS2_Lb0EEEEEvOT_, symObjAddr: 0x10C7C, symBinAddr: 0x1000129A4, symSize: 0x15C }
  - { offset: 0xFB43F, size: 0x8, addend: 0x0, symName: '__ZN4linb3any12vtable_stackIZN9hlt_bench9Benchmark8WithUnit6parse1ERN5hilti2rt14ValueReferenceINS6_6StreamEEERKNSt3__18optionalINS6_6stream4ViewEEERKNSC_IN5spicy2rt11UnitContextEEEE3$_0E4typeEv', symObjAddr: 0x10DD8, symBinAddr: 0x100012B00, symSize: 0xC }
  - { offset: 0xFB470, size: 0x8, addend: 0x0, symName: '__ZN4linb3any12vtable_stackIZN9hlt_bench9Benchmark8WithUnit6parse1ERN5hilti2rt14ValueReferenceINS6_6StreamEEERKNSt3__18optionalINS6_6stream4ViewEEERKNSC_IN5spicy2rt11UnitContextEEEE3$_0E7destroyERNS0_13storage_unionE', symObjAddr: 0x10DE4, symBinAddr: 0x100012B0C, symSize: 0x50 }
  - { offset: 0xFB5E2, size: 0x8, addend: 0x0, symName: '__ZN4linb3any12vtable_stackIZN9hlt_bench9Benchmark8WithUnit6parse1ERN5hilti2rt14ValueReferenceINS6_6StreamEEERKNSt3__18optionalINS6_6stream4ViewEEERKNSC_IN5spicy2rt11UnitContextEEEE3$_0E4copyERKNS0_13storage_unionERSQ_', symObjAddr: 0x10E34, symBinAddr: 0x100012B5C, symSize: 0x1C }
  - { offset: 0xFB6E2, size: 0x8, addend: 0x0, symName: '__ZN4linb3any12vtable_stackIZN9hlt_bench9Benchmark8WithUnit6parse1ERN5hilti2rt14ValueReferenceINS6_6StreamEEERKNSt3__18optionalINS6_6stream4ViewEEERKNSC_IN5spicy2rt11UnitContextEEEE3$_0E4moveERNS0_13storage_unionESR_', symObjAddr: 0x10E50, symBinAddr: 0x100012B78, symSize: 0x10 }
  - { offset: 0xFB707, size: 0x8, addend: 0x0, symName: '__ZN4linb3any12vtable_stackIZN9hlt_bench9Benchmark8WithUnit6parse1ERN5hilti2rt14ValueReferenceINS6_6StreamEEERKNSt3__18optionalINS6_6stream4ViewEEERKNSC_IN5spicy2rt11UnitContextEEEE3$_0E4moveERNS0_13storage_unionESR_', symObjAddr: 0x10E50, symBinAddr: 0x100012B78, symSize: 0x10 }
  - { offset: 0xFB72A, size: 0x8, addend: 0x0, symName: '__ZN4linb3any12vtable_stackIZN9hlt_bench9Benchmark8WithUnit6parse1ERN5hilti2rt14ValueReferenceINS6_6StreamEEERKNSt3__18optionalINS6_6stream4ViewEEERKNSC_IN5spicy2rt11UnitContextEEEE3$_0E4moveERNS0_13storage_unionESR_', symObjAddr: 0x10E50, symBinAddr: 0x100012B78, symSize: 0x10 }
  - { offset: 0xFB74D, size: 0x8, addend: 0x0, symName: '__ZN4linb3any12vtable_stackIZN9hlt_bench9Benchmark8WithUnit6parse1ERN5hilti2rt14ValueReferenceINS6_6StreamEEERKNSt3__18optionalINS6_6stream4ViewEEERKNSC_IN5spicy2rt11UnitContextEEEE3$_0E4moveERNS0_13storage_unionESR_', symObjAddr: 0x10E50, symBinAddr: 0x100012B78, symSize: 0x10 }
  - { offset: 0xFB770, size: 0x8, addend: 0x0, symName: '__ZN4linb3any12vtable_stackIZN9hlt_bench9Benchmark8WithUnit6parse1ERN5hilti2rt14ValueReferenceINS6_6StreamEEERKNSt3__18optionalINS6_6stream4ViewEEERKNSC_IN5spicy2rt11UnitContextEEEE3$_0E4moveERNS0_13storage_unionESR_', symObjAddr: 0x10E50, symBinAddr: 0x100012B78, symSize: 0x10 }
  - { offset: 0xFB7B5, size: 0x8, addend: 0x0, symName: '__ZN4linb3any12vtable_stackIZN9hlt_bench9Benchmark8WithUnit6parse1ERN5hilti2rt14ValueReferenceINS6_6StreamEEERKNSt3__18optionalINS6_6stream4ViewEEERKNSC_IN5spicy2rt11UnitContextEEEE3$_0E4swapERNS0_13storage_unionESR_', symObjAddr: 0x10E60, symBinAddr: 0x100012B88, symSize: 0x18 }
  - { offset: 0xFB7FA, size: 0x8, addend: 0x0, symName: '__ZN4linb3any12vtable_stackIZN9hlt_bench9Benchmark8WithUnit6parse1ERN5hilti2rt14ValueReferenceINS6_6StreamEEERKNSt3__18optionalINS6_6stream4ViewEEERKNSC_IN5spicy2rt11UnitContextEEEE3$_0E4swapERNS0_13storage_unionESR_', symObjAddr: 0x10E60, symBinAddr: 0x100012B88, symSize: 0x18 }
  - { offset: 0xFB816, size: 0x8, addend: 0x0, symName: '__ZN4linb3any12vtable_stackIZN9hlt_bench9Benchmark8WithUnit6parse1ERN5hilti2rt14ValueReferenceINS6_6StreamEEERKNSt3__18optionalINS6_6stream4ViewEEERKNSC_IN5spicy2rt11UnitContextEEEE3$_0E4swapERNS0_13storage_unionESR_', symObjAddr: 0x10E60, symBinAddr: 0x100012B88, symSize: 0x18 }
  - { offset: 0xFB832, size: 0x8, addend: 0x0, symName: '__ZN4linb3any12vtable_stackIZN9hlt_bench9Benchmark8WithUnit6parse1ERN5hilti2rt14ValueReferenceINS6_6StreamEEERKNSt3__18optionalINS6_6stream4ViewEEERKNSC_IN5spicy2rt11UnitContextEEEE3$_0E4swapERNS0_13storage_unionESR_', symObjAddr: 0x10E60, symBinAddr: 0x100012B88, symSize: 0x18 }
  - { offset: 0xFB84E, size: 0x8, addend: 0x0, symName: '__ZN4linb3any12vtable_stackIZN9hlt_bench9Benchmark8WithUnit6parse1ERN5hilti2rt14ValueReferenceINS6_6StreamEEERKNSt3__18optionalINS6_6stream4ViewEEERKNSC_IN5spicy2rt11UnitContextEEEE3$_0E4swapERNS0_13storage_unionESR_', symObjAddr: 0x10E60, symBinAddr: 0x100012B88, symSize: 0x18 }
  - { offset: 0xFB86A, size: 0x8, addend: 0x0, symName: '__ZN4linb3any12vtable_stackIZN9hlt_bench9Benchmark8WithUnit6parse1ERN5hilti2rt14ValueReferenceINS6_6StreamEEERKNSt3__18optionalINS6_6stream4ViewEEERKNSC_IN5spicy2rt11UnitContextEEEE3$_0E4swapERNS0_13storage_unionESR_', symObjAddr: 0x10E60, symBinAddr: 0x100012B88, symSize: 0x18 }
  - { offset: 0xFBAF5, size: 0x8, addend: 0x0, symName: '__ZZN5hilti2rt6detail8CallbackC1IZN9hlt_bench9Benchmark8WithUnit6parse1ERNS0_14ValueReferenceINS0_6StreamEEERKNSt3__18optionalINS0_6stream4ViewEEERKNSC_IN5spicy2rt11UnitContextEEEE3$_0EET_ENUlRKN4linb3anyEPNS1_5FiberEE_8__invokeEST_SV_', symObjAddr: 0x10E78, symBinAddr: 0x100012BA0, symSize: 0x1B8 }
  - { offset: 0xFC2F0, size: 0x8, addend: 0x0, symName: __ZN4linb3any14vtable_dynamicIN5hilti2rt6stream4ViewEE4typeEv, symObjAddr: 0x11030, symBinAddr: 0x100012D58, symSize: 0xC }
  - { offset: 0xFC304, size: 0x8, addend: 0x0, symName: __ZN4linb3any14vtable_dynamicIN5hilti2rt6stream4ViewEE7destroyERNS0_13storage_unionE, symObjAddr: 0x1103C, symBinAddr: 0x100012D64, symSize: 0x24 }
  - { offset: 0xFC353, size: 0x8, addend: 0x0, symName: __ZN4linb3any14vtable_dynamicIN5hilti2rt6stream4ViewEE4copyERKNS0_13storage_unionERS7_, symObjAddr: 0x11060, symBinAddr: 0x100012D88, symSize: 0x94 }
  - { offset: 0xFC754, size: 0x8, addend: 0x0, symName: __ZN4linb3any14vtable_dynamicIN5hilti2rt6stream4ViewEE4moveERNS0_13storage_unionES8_, symObjAddr: 0x110F4, symBinAddr: 0x100012E1C, symSize: 0x10 }
  - { offset: 0xFC787, size: 0x8, addend: 0x0, symName: __ZN4linb3any14vtable_dynamicIN5hilti2rt6stream4ViewEE4swapERNS0_13storage_unionES8_, symObjAddr: 0x11104, symBinAddr: 0x100012E2C, symSize: 0x14 }
  - { offset: 0xFC7BC, size: 0x8, addend: 0x0, symName: __ZN4linb3any14vtable_dynamicIN5hilti2rt6stream4ViewEE4swapERNS0_13storage_unionES8_, symObjAddr: 0x11104, symBinAddr: 0x100012E2C, symSize: 0x14 }
  - { offset: 0xFC833, size: 0x8, addend: 0x0, symName: __ZNSt3__120__shared_ptr_emplaceINS_5tupleIJN5hilti2rt14ValueReferenceIN11__hlt_bench9Benchmark8WithUnitEEENS4_INS3_6StreamEEENS_8optionalINS3_6stream4ViewEEENSB_IN5spicy2rt11UnitContextEEEEEENS_9allocatorISJ_EEED1Ev, symObjAddr: 0x111C0, symBinAddr: 0x100012E40, symSize: 0x10 }
  - { offset: 0xFC855, size: 0x8, addend: 0x0, symName: __ZNSt3__120__shared_ptr_emplaceINS_5tupleIJN5hilti2rt14ValueReferenceIN11__hlt_bench9Benchmark8WithUnitEEENS4_INS3_6StreamEEENS_8optionalINS3_6stream4ViewEEENSB_IN5spicy2rt11UnitContextEEEEEENS_9allocatorISJ_EEED1Ev, symObjAddr: 0x111C0, symBinAddr: 0x100012E40, symSize: 0x10 }
  - { offset: 0xFC88B, size: 0x8, addend: 0x0, symName: __ZNSt3__120__shared_ptr_emplaceINS_5tupleIJN5hilti2rt14ValueReferenceIN11__hlt_bench9Benchmark8WithUnitEEENS4_INS3_6StreamEEENS_8optionalINS3_6stream4ViewEEENSB_IN5spicy2rt11UnitContextEEEEEENS_9allocatorISJ_EEED0Ev, symObjAddr: 0x111D0, symBinAddr: 0x100012E50, symSize: 0x20 }
  - { offset: 0xFC979, size: 0x8, addend: 0x0, symName: __ZNSt3__120__shared_ptr_emplaceINS_5tupleIJN5hilti2rt14ValueReferenceIN11__hlt_bench9Benchmark8WithUnitEEENS4_INS3_6StreamEEENS_8optionalINS3_6stream4ViewEEENSB_IN5spicy2rt11UnitContextEEEEEENS_9allocatorISJ_EEE16__on_zero_sharedEv, symObjAddr: 0x111F0, symBinAddr: 0x100012E70, symSize: 0xA0 }
  - { offset: 0xFD04D, size: 0x8, addend: 0x0, symName: __ZNSt3__120__shared_ptr_emplaceINS_5tupleIJN5hilti2rt14ValueReferenceIN11__hlt_bench9Benchmark8WithUnitEEENS4_INS3_6StreamEEENS_8optionalINS3_6stream4ViewEEENSB_IN5spicy2rt11UnitContextEEEEEENS_9allocatorISJ_EEE21__on_zero_shared_weakEv, symObjAddr: 0x11290, symBinAddr: 0x100012F10, symSize: 0x4 }
  - { offset: 0xFD081, size: 0x8, addend: 0x0, symName: __ZNSt3__120__shared_ptr_emplaceINS_5tupleIJN5hilti2rt14ValueReferenceIN11__hlt_bench9Benchmark8WithUnitEEENS4_INS3_6StreamEEENS_8optionalINS3_6stream4ViewEEENSB_IN5spicy2rt11UnitContextEEEEEENS_9allocatorISJ_EEE21__on_zero_shared_weakEv, symObjAddr: 0x11290, symBinAddr: 0x100012F10, symSize: 0x4 }
  - { offset: 0xFD0A3, size: 0x8, addend: 0x0, symName: __ZNSt3__120__shared_ptr_emplaceINS_5tupleIJN5hilti2rt14ValueReferenceIN11__hlt_bench9Benchmark8WithUnitEEENS4_INS3_6StreamEEENS_8optionalINS3_6stream4ViewEEENSB_IN5spicy2rt11UnitContextEEEEEENS_9allocatorISJ_EEE21__on_zero_shared_weakEv, symObjAddr: 0x11290, symBinAddr: 0x100012F10, symSize: 0x4 }
  - { offset: 0xFD0C5, size: 0x8, addend: 0x0, symName: __ZNSt3__120__shared_ptr_emplaceINS_5tupleIJN5hilti2rt14ValueReferenceIN11__hlt_bench9Benchmark8WithUnitEEENS4_INS3_6StreamEEENS_8optionalINS3_6stream4ViewEEENSB_IN5spicy2rt11UnitContextEEEEEENS_9allocatorISJ_EEE21__on_zero_shared_weakEv, symObjAddr: 0x11290, symBinAddr: 0x100012F10, symSize: 0x4 }
  - { offset: 0xFD0F2, size: 0x8, addend: 0x0, symName: __ZNSt3__120__shared_ptr_emplaceINS_5tupleIJN5hilti2rt14ValueReferenceIN11__hlt_bench9Benchmark8WithUnitEEENS4_INS3_6StreamEEENS_8optionalINS3_6stream4ViewEEENSB_IN5spicy2rt11UnitContextEEEEEENS_9allocatorISJ_EEE21__on_zero_shared_weakEv, symObjAddr: 0x11290, symBinAddr: 0x100012F10, symSize: 0x4 }
  - { offset: 0xFD11A, size: 0x8, addend: 0x0, symName: __ZNSt3__120__shared_ptr_emplaceINS_5tupleIJN5hilti2rt14ValueReferenceIN11__hlt_bench9Benchmark8WithUnitEEENS4_INS3_6StreamEEENS_8optionalINS3_6stream4ViewEEENSB_IN5spicy2rt11UnitContextEEEEEENS_9allocatorISJ_EEE21__on_zero_shared_weakEv, symObjAddr: 0x11290, symBinAddr: 0x100012F10, symSize: 0x4 }
  - { offset: 0xFD1DD, size: 0x8, addend: 0x0, symName: '__ZN4linb3any12vtable_stackIZN9hlt_bench9Benchmark8WithUnit6parse2ERN5hilti2rt14ValueReferenceIN11__hlt_bench9Benchmark8WithUnitEEERNS7_INS6_6StreamEEERKNSt3__18optionalINS6_6stream4ViewEEERKNSH_IN5spicy2rt11UnitContextEEEE3$_0E4typeEv', symObjAddr: 0x113F4, symBinAddr: 0x100013074, symSize: 0xC }
  - { offset: 0xFD20E, size: 0x8, addend: 0x0, symName: '__ZN4linb3any12vtable_stackIZN9hlt_bench9Benchmark8WithUnit6parse2ERN5hilti2rt14ValueReferenceIN11__hlt_bench9Benchmark8WithUnitEEERNS7_INS6_6StreamEEERKNSt3__18optionalINS6_6stream4ViewEEERKNSH_IN5spicy2rt11UnitContextEEEE3$_0E7destroyERNS0_13storage_unionE', symObjAddr: 0x11400, symBinAddr: 0x100013080, symSize: 0x50 }
  - { offset: 0xFD380, size: 0x8, addend: 0x0, symName: '__ZN4linb3any12vtable_stackIZN9hlt_bench9Benchmark8WithUnit6parse2ERN5hilti2rt14ValueReferenceIN11__hlt_bench9Benchmark8WithUnitEEERNS7_INS6_6StreamEEERKNSt3__18optionalINS6_6stream4ViewEEERKNSH_IN5spicy2rt11UnitContextEEEE3$_0E4copyERKNS0_13storage_unionERSV_', symObjAddr: 0x11450, symBinAddr: 0x1000130D0, symSize: 0x1C }
  - { offset: 0xFD480, size: 0x8, addend: 0x0, symName: '__ZN4linb3any12vtable_stackIZN9hlt_bench9Benchmark8WithUnit6parse2ERN5hilti2rt14ValueReferenceIN11__hlt_bench9Benchmark8WithUnitEEERNS7_INS6_6StreamEEERKNSt3__18optionalINS6_6stream4ViewEEERKNSH_IN5spicy2rt11UnitContextEEEE3$_0E4moveERNS0_13storage_unionESW_', symObjAddr: 0x1146C, symBinAddr: 0x1000130EC, symSize: 0x10 }
  - { offset: 0xFD4A5, size: 0x8, addend: 0x0, symName: '__ZN4linb3any12vtable_stackIZN9hlt_bench9Benchmark8WithUnit6parse2ERN5hilti2rt14ValueReferenceIN11__hlt_bench9Benchmark8WithUnitEEERNS7_INS6_6StreamEEERKNSt3__18optionalINS6_6stream4ViewEEERKNSH_IN5spicy2rt11UnitContextEEEE3$_0E4moveERNS0_13storage_unionESW_', symObjAddr: 0x1146C, symBinAddr: 0x1000130EC, symSize: 0x10 }
  - { offset: 0xFD4C8, size: 0x8, addend: 0x0, symName: '__ZN4linb3any12vtable_stackIZN9hlt_bench9Benchmark8WithUnit6parse2ERN5hilti2rt14ValueReferenceIN11__hlt_bench9Benchmark8WithUnitEEERNS7_INS6_6StreamEEERKNSt3__18optionalINS6_6stream4ViewEEERKNSH_IN5spicy2rt11UnitContextEEEE3$_0E4moveERNS0_13storage_unionESW_', symObjAddr: 0x1146C, symBinAddr: 0x1000130EC, symSize: 0x10 }
  - { offset: 0xFD4EB, size: 0x8, addend: 0x0, symName: '__ZN4linb3any12vtable_stackIZN9hlt_bench9Benchmark8WithUnit6parse2ERN5hilti2rt14ValueReferenceIN11__hlt_bench9Benchmark8WithUnitEEERNS7_INS6_6StreamEEERKNSt3__18optionalINS6_6stream4ViewEEERKNSH_IN5spicy2rt11UnitContextEEEE3$_0E4moveERNS0_13storage_unionESW_', symObjAddr: 0x1146C, symBinAddr: 0x1000130EC, symSize: 0x10 }
  - { offset: 0xFD50E, size: 0x8, addend: 0x0, symName: '__ZN4linb3any12vtable_stackIZN9hlt_bench9Benchmark8WithUnit6parse2ERN5hilti2rt14ValueReferenceIN11__hlt_bench9Benchmark8WithUnitEEERNS7_INS6_6StreamEEERKNSt3__18optionalINS6_6stream4ViewEEERKNSH_IN5spicy2rt11UnitContextEEEE3$_0E4moveERNS0_13storage_unionESW_', symObjAddr: 0x1146C, symBinAddr: 0x1000130EC, symSize: 0x10 }
  - { offset: 0xFD553, size: 0x8, addend: 0x0, symName: '__ZN4linb3any12vtable_stackIZN9hlt_bench9Benchmark8WithUnit6parse2ERN5hilti2rt14ValueReferenceIN11__hlt_bench9Benchmark8WithUnitEEERNS7_INS6_6StreamEEERKNSt3__18optionalINS6_6stream4ViewEEERKNSH_IN5spicy2rt11UnitContextEEEE3$_0E4swapERNS0_13storage_unionESW_', symObjAddr: 0x1147C, symBinAddr: 0x1000130FC, symSize: 0x18 }
  - { offset: 0xFD598, size: 0x8, addend: 0x0, symName: '__ZN4linb3any12vtable_stackIZN9hlt_bench9Benchmark8WithUnit6parse2ERN5hilti2rt14ValueReferenceIN11__hlt_bench9Benchmark8WithUnitEEERNS7_INS6_6StreamEEERKNSt3__18optionalINS6_6stream4ViewEEERKNSH_IN5spicy2rt11UnitContextEEEE3$_0E4swapERNS0_13storage_unionESW_', symObjAddr: 0x1147C, symBinAddr: 0x1000130FC, symSize: 0x18 }
  - { offset: 0xFD5B4, size: 0x8, addend: 0x0, symName: '__ZN4linb3any12vtable_stackIZN9hlt_bench9Benchmark8WithUnit6parse2ERN5hilti2rt14ValueReferenceIN11__hlt_bench9Benchmark8WithUnitEEERNS7_INS6_6StreamEEERKNSt3__18optionalINS6_6stream4ViewEEERKNSH_IN5spicy2rt11UnitContextEEEE3$_0E4swapERNS0_13storage_unionESW_', symObjAddr: 0x1147C, symBinAddr: 0x1000130FC, symSize: 0x18 }
  - { offset: 0xFD5D0, size: 0x8, addend: 0x0, symName: '__ZN4linb3any12vtable_stackIZN9hlt_bench9Benchmark8WithUnit6parse2ERN5hilti2rt14ValueReferenceIN11__hlt_bench9Benchmark8WithUnitEEERNS7_INS6_6StreamEEERKNSt3__18optionalINS6_6stream4ViewEEERKNSH_IN5spicy2rt11UnitContextEEEE3$_0E4swapERNS0_13storage_unionESW_', symObjAddr: 0x1147C, symBinAddr: 0x1000130FC, symSize: 0x18 }
  - { offset: 0xFD5EC, size: 0x8, addend: 0x0, symName: '__ZN4linb3any12vtable_stackIZN9hlt_bench9Benchmark8WithUnit6parse2ERN5hilti2rt14ValueReferenceIN11__hlt_bench9Benchmark8WithUnitEEERNS7_INS6_6StreamEEERKNSt3__18optionalINS6_6stream4ViewEEERKNSH_IN5spicy2rt11UnitContextEEEE3$_0E4swapERNS0_13storage_unionESW_', symObjAddr: 0x1147C, symBinAddr: 0x1000130FC, symSize: 0x18 }
  - { offset: 0xFD608, size: 0x8, addend: 0x0, symName: '__ZN4linb3any12vtable_stackIZN9hlt_bench9Benchmark8WithUnit6parse2ERN5hilti2rt14ValueReferenceIN11__hlt_bench9Benchmark8WithUnitEEERNS7_INS6_6StreamEEERKNSt3__18optionalINS6_6stream4ViewEEERKNSH_IN5spicy2rt11UnitContextEEEE3$_0E4swapERNS0_13storage_unionESW_', symObjAddr: 0x1147C, symBinAddr: 0x1000130FC, symSize: 0x18 }
  - { offset: 0xFD7D4, size: 0x8, addend: 0x0, symName: '__ZZN5hilti2rt6detail8CallbackC1IZN9hlt_bench9Benchmark8WithUnit6parse2ERNS0_14ValueReferenceIN11__hlt_bench9Benchmark8WithUnitEEERNS7_INS0_6StreamEEERKNSt3__18optionalINS0_6stream4ViewEEERKNSH_IN5spicy2rt11UnitContextEEEE3$_0EET_ENUlRKN4linb3anyEPNS1_5FiberEE_8__invokeESY_S10_', symObjAddr: 0x11494, symBinAddr: 0x100013114, symSize: 0x1BC }
  - { offset: 0xFE078, size: 0x8, addend: 0x0, symName: __ZNSt3__120__shared_ptr_emplaceINS_5tupleIJN5hilti2rt14ValueReferenceIN5spicy2rt10ParsedUnitEEENS4_INS3_6StreamEEENS_8optionalINS3_6stream4ViewEEENSB_INS6_11UnitContextEEEEEENS_9allocatorISH_EEED1Ev, symObjAddr: 0x117D8, symBinAddr: 0x100013458, symSize: 0x10 }
  - { offset: 0xFE09A, size: 0x8, addend: 0x0, symName: __ZNSt3__120__shared_ptr_emplaceINS_5tupleIJN5hilti2rt14ValueReferenceIN5spicy2rt10ParsedUnitEEENS4_INS3_6StreamEEENS_8optionalINS3_6stream4ViewEEENSB_INS6_11UnitContextEEEEEENS_9allocatorISH_EEED1Ev, symObjAddr: 0x117D8, symBinAddr: 0x100013458, symSize: 0x10 }
  - { offset: 0xFE0D0, size: 0x8, addend: 0x0, symName: __ZNSt3__120__shared_ptr_emplaceINS_5tupleIJN5hilti2rt14ValueReferenceIN5spicy2rt10ParsedUnitEEENS4_INS3_6StreamEEENS_8optionalINS3_6stream4ViewEEENSB_INS6_11UnitContextEEEEEENS_9allocatorISH_EEED0Ev, symObjAddr: 0x117E8, symBinAddr: 0x100013468, symSize: 0x20 }
  - { offset: 0xFE1BE, size: 0x8, addend: 0x0, symName: __ZNSt3__120__shared_ptr_emplaceINS_5tupleIJN5hilti2rt14ValueReferenceIN5spicy2rt10ParsedUnitEEENS4_INS3_6StreamEEENS_8optionalINS3_6stream4ViewEEENSB_INS6_11UnitContextEEEEEENS_9allocatorISH_EEE16__on_zero_sharedEv, symObjAddr: 0x11808, symBinAddr: 0x100013488, symSize: 0xA0 }
  - { offset: 0xFE892, size: 0x8, addend: 0x0, symName: __ZNSt3__120__shared_ptr_emplaceINS_5tupleIJN5hilti2rt14ValueReferenceIN5spicy2rt10ParsedUnitEEENS4_INS3_6StreamEEENS_8optionalINS3_6stream4ViewEEENSB_INS6_11UnitContextEEEEEENS_9allocatorISH_EEE21__on_zero_shared_weakEv, symObjAddr: 0x118A8, symBinAddr: 0x100013528, symSize: 0x4 }
  - { offset: 0xFE8C6, size: 0x8, addend: 0x0, symName: __ZNSt3__120__shared_ptr_emplaceINS_5tupleIJN5hilti2rt14ValueReferenceIN5spicy2rt10ParsedUnitEEENS4_INS3_6StreamEEENS_8optionalINS3_6stream4ViewEEENSB_INS6_11UnitContextEEEEEENS_9allocatorISH_EEE21__on_zero_shared_weakEv, symObjAddr: 0x118A8, symBinAddr: 0x100013528, symSize: 0x4 }
  - { offset: 0xFE8E8, size: 0x8, addend: 0x0, symName: __ZNSt3__120__shared_ptr_emplaceINS_5tupleIJN5hilti2rt14ValueReferenceIN5spicy2rt10ParsedUnitEEENS4_INS3_6StreamEEENS_8optionalINS3_6stream4ViewEEENSB_INS6_11UnitContextEEEEEENS_9allocatorISH_EEE21__on_zero_shared_weakEv, symObjAddr: 0x118A8, symBinAddr: 0x100013528, symSize: 0x4 }
  - { offset: 0xFE90A, size: 0x8, addend: 0x0, symName: __ZNSt3__120__shared_ptr_emplaceINS_5tupleIJN5hilti2rt14ValueReferenceIN5spicy2rt10ParsedUnitEEENS4_INS3_6StreamEEENS_8optionalINS3_6stream4ViewEEENSB_INS6_11UnitContextEEEEEENS_9allocatorISH_EEE21__on_zero_shared_weakEv, symObjAddr: 0x118A8, symBinAddr: 0x100013528, symSize: 0x4 }
  - { offset: 0xFE937, size: 0x8, addend: 0x0, symName: __ZNSt3__120__shared_ptr_emplaceINS_5tupleIJN5hilti2rt14ValueReferenceIN5spicy2rt10ParsedUnitEEENS4_INS3_6StreamEEENS_8optionalINS3_6stream4ViewEEENSB_INS6_11UnitContextEEEEEENS_9allocatorISH_EEE21__on_zero_shared_weakEv, symObjAddr: 0x118A8, symBinAddr: 0x100013528, symSize: 0x4 }
  - { offset: 0xFE95F, size: 0x8, addend: 0x0, symName: __ZNSt3__120__shared_ptr_emplaceINS_5tupleIJN5hilti2rt14ValueReferenceIN5spicy2rt10ParsedUnitEEENS4_INS3_6StreamEEENS_8optionalINS3_6stream4ViewEEENSB_INS6_11UnitContextEEEEEENS_9allocatorISH_EEE21__on_zero_shared_weakEv, symObjAddr: 0x118A8, symBinAddr: 0x100013528, symSize: 0x4 }
  - { offset: 0xFE9B0, size: 0x8, addend: 0x0, symName: '__ZN4linb3any12vtable_stackIZN9hlt_bench9Benchmark8WithUnit6parse3ERN5hilti2rt14ValueReferenceIN5spicy2rt10ParsedUnitEEERNS7_INS6_6StreamEEERKNSt3__18optionalINS6_6stream4ViewEEERKNSH_INS9_11UnitContextEEEE3$_0E4typeEv', symObjAddr: 0x11A0C, symBinAddr: 0x10001368C, symSize: 0xC }
  - { offset: 0xFE9E1, size: 0x8, addend: 0x0, symName: '__ZN4linb3any12vtable_stackIZN9hlt_bench9Benchmark8WithUnit6parse3ERN5hilti2rt14ValueReferenceIN5spicy2rt10ParsedUnitEEERNS7_INS6_6StreamEEERKNSt3__18optionalINS6_6stream4ViewEEERKNSH_INS9_11UnitContextEEEE3$_0E7destroyERNS0_13storage_unionE', symObjAddr: 0x11A18, symBinAddr: 0x100013698, symSize: 0x50 }
  - { offset: 0xFEB53, size: 0x8, addend: 0x0, symName: '__ZN4linb3any12vtable_stackIZN9hlt_bench9Benchmark8WithUnit6parse3ERN5hilti2rt14ValueReferenceIN5spicy2rt10ParsedUnitEEERNS7_INS6_6StreamEEERKNSt3__18optionalINS6_6stream4ViewEEERKNSH_INS9_11UnitContextEEEE3$_0E4copyERKNS0_13storage_unionERST_', symObjAddr: 0x11A68, symBinAddr: 0x1000136E8, symSize: 0x1C }
  - { offset: 0xFEC53, size: 0x8, addend: 0x0, symName: '__ZN4linb3any12vtable_stackIZN9hlt_bench9Benchmark8WithUnit6parse3ERN5hilti2rt14ValueReferenceIN5spicy2rt10ParsedUnitEEERNS7_INS6_6StreamEEERKNSt3__18optionalINS6_6stream4ViewEEERKNSH_INS9_11UnitContextEEEE3$_0E4moveERNS0_13storage_unionESU_', symObjAddr: 0x11A84, symBinAddr: 0x100013704, symSize: 0x10 }
  - { offset: 0xFEC78, size: 0x8, addend: 0x0, symName: '__ZN4linb3any12vtable_stackIZN9hlt_bench9Benchmark8WithUnit6parse3ERN5hilti2rt14ValueReferenceIN5spicy2rt10ParsedUnitEEERNS7_INS6_6StreamEEERKNSt3__18optionalINS6_6stream4ViewEEERKNSH_INS9_11UnitContextEEEE3$_0E4moveERNS0_13storage_unionESU_', symObjAddr: 0x11A84, symBinAddr: 0x100013704, symSize: 0x10 }
  - { offset: 0xFEC9B, size: 0x8, addend: 0x0, symName: '__ZN4linb3any12vtable_stackIZN9hlt_bench9Benchmark8WithUnit6parse3ERN5hilti2rt14ValueReferenceIN5spicy2rt10ParsedUnitEEERNS7_INS6_6StreamEEERKNSt3__18optionalINS6_6stream4ViewEEERKNSH_INS9_11UnitContextEEEE3$_0E4moveERNS0_13storage_unionESU_', symObjAddr: 0x11A84, symBinAddr: 0x100013704, symSize: 0x10 }
  - { offset: 0xFECBE, size: 0x8, addend: 0x0, symName: '__ZN4linb3any12vtable_stackIZN9hlt_bench9Benchmark8WithUnit6parse3ERN5hilti2rt14ValueReferenceIN5spicy2rt10ParsedUnitEEERNS7_INS6_6StreamEEERKNSt3__18optionalINS6_6stream4ViewEEERKNSH_INS9_11UnitContextEEEE3$_0E4moveERNS0_13storage_unionESU_', symObjAddr: 0x11A84, symBinAddr: 0x100013704, symSize: 0x10 }
  - { offset: 0xFECE1, size: 0x8, addend: 0x0, symName: '__ZN4linb3any12vtable_stackIZN9hlt_bench9Benchmark8WithUnit6parse3ERN5hilti2rt14ValueReferenceIN5spicy2rt10ParsedUnitEEERNS7_INS6_6StreamEEERKNSt3__18optionalINS6_6stream4ViewEEERKNSH_INS9_11UnitContextEEEE3$_0E4moveERNS0_13storage_unionESU_', symObjAddr: 0x11A84, symBinAddr: 0x100013704, symSize: 0x10 }
  - { offset: 0xFED26, size: 0x8, addend: 0x0, symName: '__ZN4linb3any12vtable_stackIZN9hlt_bench9Benchmark8WithUnit6parse3ERN5hilti2rt14ValueReferenceIN5spicy2rt10ParsedUnitEEERNS7_INS6_6StreamEEERKNSt3__18optionalINS6_6stream4ViewEEERKNSH_INS9_11UnitContextEEEE3$_0E4swapERNS0_13storage_unionESU_', symObjAddr: 0x11A94, symBinAddr: 0x100013714, symSize: 0x18 }
  - { offset: 0xFED6B, size: 0x8, addend: 0x0, symName: '__ZN4linb3any12vtable_stackIZN9hlt_bench9Benchmark8WithUnit6parse3ERN5hilti2rt14ValueReferenceIN5spicy2rt10ParsedUnitEEERNS7_INS6_6StreamEEERKNSt3__18optionalINS6_6stream4ViewEEERKNSH_INS9_11UnitContextEEEE3$_0E4swapERNS0_13storage_unionESU_', symObjAddr: 0x11A94, symBinAddr: 0x100013714, symSize: 0x18 }
  - { offset: 0xFED87, size: 0x8, addend: 0x0, symName: '__ZN4linb3any12vtable_stackIZN9hlt_bench9Benchmark8WithUnit6parse3ERN5hilti2rt14ValueReferenceIN5spicy2rt10ParsedUnitEEERNS7_INS6_6StreamEEERKNSt3__18optionalINS6_6stream4ViewEEERKNSH_INS9_11UnitContextEEEE3$_0E4swapERNS0_13storage_unionESU_', symObjAddr: 0x11A94, symBinAddr: 0x100013714, symSize: 0x18 }
  - { offset: 0xFEDA3, size: 0x8, addend: 0x0, symName: '__ZN4linb3any12vtable_stackIZN9hlt_bench9Benchmark8WithUnit6parse3ERN5hilti2rt14ValueReferenceIN5spicy2rt10ParsedUnitEEERNS7_INS6_6StreamEEERKNSt3__18optionalINS6_6stream4ViewEEERKNSH_INS9_11UnitContextEEEE3$_0E4swapERNS0_13storage_unionESU_', symObjAddr: 0x11A94, symBinAddr: 0x100013714, symSize: 0x18 }
  - { offset: 0xFEDBF, size: 0x8, addend: 0x0, symName: '__ZN4linb3any12vtable_stackIZN9hlt_bench9Benchmark8WithUnit6parse3ERN5hilti2rt14ValueReferenceIN5spicy2rt10ParsedUnitEEERNS7_INS6_6StreamEEERKNSt3__18optionalINS6_6stream4ViewEEERKNSH_INS9_11UnitContextEEEE3$_0E4swapERNS0_13storage_unionESU_', symObjAddr: 0x11A94, symBinAddr: 0x100013714, symSize: 0x18 }
  - { offset: 0xFEDDB, size: 0x8, addend: 0x0, symName: '__ZN4linb3any12vtable_stackIZN9hlt_bench9Benchmark8WithUnit6parse3ERN5hilti2rt14ValueReferenceIN5spicy2rt10ParsedUnitEEERNS7_INS6_6StreamEEERKNSt3__18optionalINS6_6stream4ViewEEERKNSH_INS9_11UnitContextEEEE3$_0E4swapERNS0_13storage_unionESU_', symObjAddr: 0x11A94, symBinAddr: 0x100013714, symSize: 0x18 }
  - { offset: 0xFEFA7, size: 0x8, addend: 0x0, symName: '__ZZN5hilti2rt6detail8CallbackC1IZN9hlt_bench9Benchmark8WithUnit6parse3ERNS0_14ValueReferenceIN5spicy2rt10ParsedUnitEEERNS7_INS0_6StreamEEERKNSt3__18optionalINS0_6stream4ViewEEERKNSH_INS9_11UnitContextEEEE3$_0EET_ENUlRKN4linb3anyEPNS1_5FiberEE_8__invokeESW_SY_', symObjAddr: 0x11AAC, symBinAddr: 0x10001372C, symSize: 0x1BC }
  - { offset: 0xFF7BF, size: 0x8, addend: 0x0, symName: _OUTLINED_FUNCTION_0, symObjAddr: 0x11E68, symBinAddr: 0x1000138E8, symSize: 0x18 }
  - { offset: 0xFF7D7, size: 0x8, addend: 0x0, symName: _OUTLINED_FUNCTION_1, symObjAddr: 0x11E80, symBinAddr: 0x100013900, symSize: 0xC }
  - { offset: 0xFF7EF, size: 0x8, addend: 0x0, symName: _OUTLINED_FUNCTION_2, symObjAddr: 0x11E8C, symBinAddr: 0x10001390C, symSize: 0xC }
  - { offset: 0xFF807, size: 0x8, addend: 0x0, symName: _OUTLINED_FUNCTION_3, symObjAddr: 0x11E98, symBinAddr: 0x100013918, symSize: 0xC }
  - { offset: 0xFF81F, size: 0x8, addend: 0x0, symName: _OUTLINED_FUNCTION_4, symObjAddr: 0x11EA4, symBinAddr: 0x100013924, symSize: 0x18 }
  - { offset: 0xFF837, size: 0x8, addend: 0x0, symName: _OUTLINED_FUNCTION_5, symObjAddr: 0x11EBC, symBinAddr: 0x10001393C, symSize: 0xC }
  - { offset: 0xFF8D7, size: 0x8, addend: 0x0, symName: __ZN5spicy2rt6detail14__global_stateE, symObjAddr: 0x9FC08, symBinAddr: 0x1000BC740, symSize: 0x0 }
  - { offset: 0xFF9A8, size: 0x8, addend: 0x0, symName: __ZN5spicy2rt6detail17createGlobalStateEv, symObjAddr: 0x0, symBinAddr: 0x100013FA4, symSize: 0x48 }
  - { offset: 0x112EAB, size: 0x8, addend: 0x0, symName: __ZN5spicy2rt6detail11GlobalStateD2Ev, symObjAddr: 0x48, symBinAddr: 0x100013FEC, symSize: 0x160 }
  - { offset: 0x1134D9, size: 0x8, addend: 0x0, symName: __ZNSt3__16__treeINS_12__value_typeINS_12basic_stringIcNS_11char_traitsIcEENS_9allocatorIcEEEENS_6vectorIPKN5spicy2rt6ParserENS5_ISD_EEEEEENS_19__map_value_compareIS7_SG_NS_4lessIS7_EELb1EEENS5_ISG_EEE7destroyEPNS_11__tree_nodeISG_PvEE, symObjAddr: 0x1BC, symBinAddr: 0x100014150, symSize: 0x70 }
  - { offset: 0x11387A, size: 0x8, addend: 0x0, symName: __ZN5spicy2rt6detail11GlobalStateD1Ev, symObjAddr: 0x1B8, symBinAddr: 0x10001414C, symSize: 0x4 }
  - { offset: 0x1138A8, size: 0x8, addend: 0x0, symName: __ZN5spicy2rt6detail11GlobalStateD1Ev, symObjAddr: 0x1B8, symBinAddr: 0x10001414C, symSize: 0x4 }
  - { offset: 0x115C85, size: 0x8, addend: 0x0, symName: __ZNSt3__119piecewise_constructE, symObjAddr: 0xA27B, symBinAddr: 0x100060B17, symSize: 0x0 }
  - { offset: 0x12F967, size: 0x8, addend: 0x0, symName: __ZNSt3__127__tree_balance_after_insertB8ne180100IPNS_16__tree_node_baseIPvEEEEvT_S5_, symObjAddr: 0x8660, symBinAddr: 0x100019AD0, symSize: 0x1B4 }
  - { offset: 0x131DD6, size: 0x8, addend: 0x0, symName: __ZN5hilti2rt6streamlsERNSt3__113basic_ostreamIcNS2_11char_traitsIcEEEERKNS1_4ViewE, symObjAddr: 0x65E8, symBinAddr: 0x100018B34, symSize: 0xE8 }
  - { offset: 0x132BA7, size: 0x8, addend: 0x0, symName: __ZN5hilti2rt6vectoreqERKNS1_8IteratorIN5spicy2rt6filter6detail9OneFilterENSt3__19allocatorIS7_EEEESD_, symObjAddr: 0x7108, symBinAddr: 0x1000192CC, symSize: 0x13C }
  - { offset: 0x1341D7, size: 0x8, addend: 0x0, symName: __ZN5hilti2rt5debug6detail5printENSt3__117basic_string_viewIcNS3_11char_traitsIcEEEES7_, symObjAddr: 0x15F8, symBinAddr: 0x1000157B8, symSize: 0xF8 }
  - { offset: 0x136AFB, size: 0x8, addend: 0x0, symName: __ZN5spicy2rt6detail16printParserStateENSt3__117basic_string_viewIcNS2_11char_traitsIcEEEERKN5hilti2rt14ValueReferenceINS8_6StreamEEERKNS2_8optionalINS8_6stream17SafeConstIteratorEEERKNSF_4ViewExRKSG_S6_bRKNSE_INS8_18RecoverableFailureEEE, symObjAddr: 0xC9C, symBinAddr: 0x100014E5C, symSize: 0x894 }
  - { offset: 0x139CF8, size: 0x8, addend: 0x0, symName: __ZN5spicy2rt6detail10waitForEodERN5hilti2rt14ValueReferenceINS3_6StreamEEERKNS3_6stream4ViewENS3_15StrongReferenceINS3_6VectorINS0_6filter6detail9OneFilterENSt3__19allocatorISG_EEEEEE, symObjAddr: 0x16F0, symBinAddr: 0x1000158B0, symSize: 0x130 }
  - { offset: 0x13A185, size: 0x8, addend: 0x0, symName: __ZN5spicy2rt6detail17waitForInputOrEodERN5hilti2rt14ValueReferenceINS3_6StreamEEERKNS3_6stream4ViewERKNS3_15StrongReferenceINS3_6VectorINS0_6filter6detail9OneFilterENSt3__19allocatorISG_EEEEEE, symObjAddr: 0x1C00, symBinAddr: 0x100015D60, symSize: 0x580 }
  - { offset: 0x13B8FF, size: 0x8, addend: 0x0, symName: __ZN5spicy2rt6detail17waitForInputOrEodERN5hilti2rt14ValueReferenceINS3_6StreamEEERKNS3_6stream4ViewEyNS3_15StrongReferenceINS3_6VectorINS0_6filter6detail9OneFilterENSt3__19allocatorISG_EEEEEE, symObjAddr: 0x1820, symBinAddr: 0x1000159E0, symSize: 0xB0 }
  - { offset: 0x13BB1E, size: 0x8, addend: 0x0, symName: __ZN5spicy2rt6detail12waitForInputERN5hilti2rt14ValueReferenceINS3_6StreamEEERKNS3_6stream4ViewEyNSt3__117basic_string_viewIcNSC_11char_traitsIcEEEESG_NS3_15StrongReferenceINS3_6VectorINS0_6filter6detail9OneFilterENSC_9allocatorISL_EEEEEE, symObjAddr: 0x1930, symBinAddr: 0x100015A90, symSize: 0x264 }
  - { offset: 0x13C3BA, size: 0x8, addend: 0x0, symName: __ZN5spicy2rt6detail19waitForInputNoThrowERN5hilti2rt14ValueReferenceINS3_6StreamEEERKNS3_6stream4ViewEyNS3_15StrongReferenceINS3_6VectorINS0_6filter6detail9OneFilterENSt3__19allocatorISG_EEEEEE, symObjAddr: 0x2228, symBinAddr: 0x100016388, symSize: 0x1E4 }
  - { offset: 0x13CBA1, size: 0x8, addend: 0x0, symName: __ZN5spicy2rt6detail12waitForInputERN5hilti2rt14ValueReferenceINS3_6StreamEEERKNS3_6stream4ViewENSt3__117basic_string_viewIcNSC_11char_traitsIcEEEESG_RKNS3_15StrongReferenceINS3_6VectorINS0_6filter6detail9OneFilterENSC_9allocatorISL_EEEEEE, symObjAddr: 0x260C, symBinAddr: 0x10001676C, symSize: 0x1FC }
  - { offset: 0x13D29E, size: 0x8, addend: 0x0, symName: __ZN5spicy2rt6detail5atEodERN5hilti2rt14ValueReferenceINS3_6StreamEEERKNS3_6stream4ViewERKNS3_15StrongReferenceINS3_6VectorINS0_6filter6detail9OneFilterENSt3__19allocatorISG_EEEEEE, symObjAddr: 0x2808, symBinAddr: 0x100016968, symSize: 0xC0 }
  - { offset: 0x13D49B, size: 0x8, addend: 0x0, symName: __ZN5spicy2rt6detail8unitFindERKN5hilti2rt6stream17SafeConstIteratorES7_RKNSt3__18optionalIS5_EERKNS3_5BytesENS4_9DirectionE, symObjAddr: 0x28C8, symBinAddr: 0x100016A28, symSize: 0x33C }
  - { offset: 0x13D4A5, size: 0x8, addend: 0x0, symName: __ZN5spicy2rt6detail8unitFindERKN5hilti2rt6stream17SafeConstIteratorES7_RKNSt3__18optionalIS5_EERKNS3_5BytesENS4_9DirectionE, symObjAddr: 0x28C8, symBinAddr: 0x100016A28, symSize: 0x33C }
  - { offset: 0x13E92E, size: 0x8, addend: 0x0, symName: __ZN5spicy2rt6detail12extractBytesERN5hilti2rt14ValueReferenceINS3_6StreamEEERKNS3_6stream4ViewEybNSt3__117basic_string_viewIcNSC_11char_traitsIcEEEERKNS3_15StrongReferenceINS3_6VectorINS0_6filter6detail9OneFilterENSC_9allocatorISL_EEEEEE, symObjAddr: 0x2F0C, symBinAddr: 0x100016FF4, symSize: 0x39C }
  - { offset: 0x13F858, size: 0x8, addend: 0x0, symName: __ZN5spicy2rt6detail18expectBytesLiteralERN5hilti2rt14ValueReferenceINS3_6StreamEEERKNS3_6stream4ViewERKNS3_5BytesENSt3__117basic_string_viewIcNSF_11char_traitsIcEEEERKNS3_15StrongReferenceINS3_6VectorINS0_6filter6detail9OneFilterENSF_9allocatorISO_EEEEEE, symObjAddr: 0x34B8, symBinAddr: 0x1000175A0, symSize: 0x340 }
  - { offset: 0x140525, size: 0x8, addend: 0x0, symName: __ZN5spicy2rt6filter5flushEN5hilti2rt15StrongReferenceINS3_6VectorINS1_6detail9OneFilterENSt3__19allocatorIS7_EEEEEE, symObjAddr: 0x240C, symBinAddr: 0x10001656C, symSize: 0x200 }
  - { offset: 0x14100C, size: 0x8, addend: 0x0, symName: __ZN5spicy2rt12accept_inputEv, symObjAddr: 0x90, symBinAddr: 0x100014250, symSize: 0x44 }
  - { offset: 0x141086, size: 0x8, addend: 0x0, symName: __ZN5spicy2rt13decline_inputERKNSt3__112basic_stringIcNS1_11char_traitsIcEENS1_9allocatorIcEEEE, symObjAddr: 0xD4, symBinAddr: 0x100014294, symSize: 0x58 }
  - { offset: 0x14110E, size: 0x8, addend: 0x0, symName: __ZN5spicy2rt19registerParserAliasERKNSt3__112basic_stringIcNS1_11char_traitsIcEENS1_9allocatorIcEEEES9_, symObjAddr: 0x12C, symBinAddr: 0x1000142EC, symSize: 0x844 }
  - { offset: 0x143D58, size: 0x8, addend: 0x0, symName: __ZN5spicy2rt12lookupParserERKNSt3__112basic_stringIcNS1_11char_traitsIcEENS1_9allocatorIcEEEE, symObjAddr: 0x970, symBinAddr: 0x100014B30, symSize: 0x32C }
  - { offset: 0x147ADD, size: 0x8, addend: 0x0, symName: __ZN10tinyformat6detail15formatTruncatedIxEEvRNSt3__113basic_ostreamIcNS2_11char_traitsIcEEEERKT_i, symObjAddr: 0x5880, symBinAddr: 0x100018210, symSize: 0x200 }
  - { offset: 0x1481BD, size: 0x8, addend: 0x0, symName: __ZN10tinyformat6detail15formatTruncatedINSt3__117basic_string_viewIcNS2_11char_traitsIcEEEEEEvRNS2_13basic_ostreamIcS5_EERKT_i, symObjAddr: 0x61CC, symBinAddr: 0x100018718, symSize: 0x200 }
  - { offset: 0x1487A6, size: 0x8, addend: 0x0, symName: __ZN10tinyformat6detail15formatTruncatedIN5hilti2rt6stream4ViewEEEvRNSt3__113basic_ostreamIcNS6_11char_traitsIcEEEERKT_i, symObjAddr: 0x63E8, symBinAddr: 0x100018934, symSize: 0x200 }
  - { offset: 0x148D6D, size: 0x8, addend: 0x0, symName: __ZN10tinyformat6detail15formatTruncatedIPKN5hilti2rt6StreamEEEvRNSt3__113basic_ostreamIcNS7_11char_traitsIcEEEERKT_i, symObjAddr: 0x6794, symBinAddr: 0x100018C48, symSize: 0x200 }
  - { offset: 0x149357, size: 0x8, addend: 0x0, symName: __ZN10tinyformat6detail15formatTruncatedIiEEvRNSt3__113basic_ostreamIcNS2_11char_traitsIcEEEERKT_i, symObjAddr: 0x6C44, symBinAddr: 0x100018EB0, symSize: 0x200 }
  - { offset: 0x149ABD, size: 0x8, addend: 0x0, symName: __ZN10tinyformat6detail15formatTruncatedIN5hilti2rt5BytesEEEvRNSt3__113basic_ostreamIcNS5_11char_traitsIcEEEERKT_i, symObjAddr: 0x9380, symBinAddr: 0x10001A7F0, symSize: 0x250 }
  - { offset: 0x14A496, size: 0x8, addend: 0x0, symName: __ZN10tinyformat6formatIJxEEENSt3__112basic_stringIcNS1_11char_traitsIcEENS1_9allocatorIcEEEEPKcDpRKT_, symObjAddr: 0x4454, symBinAddr: 0x100017FF0, symSize: 0x1B8 }
  - { offset: 0x14AB6A, size: 0x8, addend: 0x0, symName: __ZN10tinyformat6formatIJNSt3__117basic_string_viewIcNS1_11char_traitsIcEEEEN5hilti2rt6stream4ViewEPKcPKNS7_6StreamE7SafeIntIyNS7_7integer6detail16SafeIntExceptionEENS1_12basic_stringIcS4_NS1_9allocatorIcEEEESJ_SJ_SJ_iSB_S5_SB_SN_S9_SN_SB_EEESN_SB_DpRKT_, symObjAddr: 0x5EC4, symBinAddr: 0x100018410, symSize: 0x2E8 }
  - { offset: 0x14B62A, size: 0x8, addend: 0x0, symName: __ZN10tinyformat6formatIJPKN5hilti2rt6StreamEEEENSt3__112basic_stringIcNS6_11char_traitsIcEENS6_9allocatorIcEEEEPKcDpRKT_, symObjAddr: 0x8990, symBinAddr: 0x100019E00, symSize: 0x1B8 }
  - { offset: 0x14BA4A, size: 0x8, addend: 0x0, symName: __ZN10tinyformat6formatIJNSt3__117basic_string_viewIcNS1_11char_traitsIcEEEE7SafeIntIyN5hilti2rt7integer6detail16SafeIntExceptionEEPKcEEENS1_12basic_stringIcS4_NS1_9allocatorIcEEEESE_DpRKT_, symObjAddr: 0x8B48, symBinAddr: 0x100019FB8, symSize: 0x1EC }
  - { offset: 0x14BF3C, size: 0x8, addend: 0x0, symName: __ZN10tinyformat6formatIJPKN5hilti2rt6StreamE7SafeIntIyNS2_7integer6detail16SafeIntExceptionEEEEENSt3__112basic_stringIcNSB_11char_traitsIcEENSB_9allocatorIcEEEEPKcDpRKT_, symObjAddr: 0x8D34, symBinAddr: 0x10001A1A4, symSize: 0x1D0 }
  - { offset: 0x14C3DF, size: 0x8, addend: 0x0, symName: __ZN10tinyformat6formatIJ7SafeIntIyN5hilti2rt7integer6detail16SafeIntExceptionEEPKNS3_6StreamEEEENSt3__112basic_stringIcNSB_11char_traitsIcEENSB_9allocatorIcEEEEPKcDpRKT_, symObjAddr: 0x8F04, symBinAddr: 0x10001A374, symSize: 0x1D0 }
  - { offset: 0x14C882, size: 0x8, addend: 0x0, symName: __ZN10tinyformat6formatIJy7SafeIntIyN5hilti2rt7integer6detail16SafeIntExceptionEEEEENSt3__112basic_stringIcNS8_11char_traitsIcEENS8_9allocatorIcEEEEPKcDpRKT_, symObjAddr: 0x80AC, symBinAddr: 0x100019760, symSize: 0x1D0 }
  - { offset: 0x14CD25, size: 0x8, addend: 0x0, symName: __ZN10tinyformat6formatIJ7SafeIntIyN5hilti2rt7integer6detail16SafeIntExceptionEENS3_5BytesES7_EEENSt3__112basic_stringIcNS9_11char_traitsIcEENS9_9allocatorIcEEEEPKcDpRKT_, symObjAddr: 0x90D4, symBinAddr: 0x10001A544, symSize: 0x1DC }
  - { offset: 0x14D21F, size: 0x8, addend: 0x0, symName: __ZN10tinyformat6formatIJN5hilti2rt5BytesES3_EEENSt3__112basic_stringIcNS4_11char_traitsIcEENS4_9allocatorIcEEEEPKcDpRKT_, symObjAddr: 0x95D0, symBinAddr: 0x10001AA40, symSize: 0x1C0 }
  - { offset: 0x14EAD3, size: 0x8, addend: 0x0, symName: __ZN5spicy2rt9BacktrackD2Ev, symObjAddr: 0x0, symBinAddr: 0x1000141C0, symSize: 0x4 }
  - { offset: 0x14EAF5, size: 0x8, addend: 0x0, symName: __ZN5spicy2rt9BacktrackD2Ev, symObjAddr: 0x0, symBinAddr: 0x1000141C0, symSize: 0x4 }
  - { offset: 0x14EB0F, size: 0x8, addend: 0x0, symName: __ZN5spicy2rt10ParseErrorD2Ev, symObjAddr: 0x4, symBinAddr: 0x1000141C4, symSize: 0x4 }
  - { offset: 0x14EB51, size: 0x8, addend: 0x0, symName: __ZN5spicy2rt9BacktrackD1Ev, symObjAddr: 0x8, symBinAddr: 0x1000141C8, symSize: 0x4 }
  - { offset: 0x14EB73, size: 0x8, addend: 0x0, symName: __ZN5spicy2rt9BacktrackD1Ev, symObjAddr: 0x8, symBinAddr: 0x1000141C8, symSize: 0x4 }
  - { offset: 0x14EB8E, size: 0x8, addend: 0x0, symName: __ZN5spicy2rt9BacktrackD1Ev, symObjAddr: 0x8, symBinAddr: 0x1000141C8, symSize: 0x4 }
  - { offset: 0x14EBC5, size: 0x8, addend: 0x0, symName: __ZN5spicy2rt9BacktrackD0Ev, symObjAddr: 0xC, symBinAddr: 0x1000141CC, symSize: 0x14 }
  - { offset: 0x14EC4A, size: 0x8, addend: 0x0, symName: __ZN5spicy2rt11MissingDataD2Ev, symObjAddr: 0x20, symBinAddr: 0x1000141E0, symSize: 0x4 }
  - { offset: 0x14EC6C, size: 0x8, addend: 0x0, symName: __ZN5spicy2rt11MissingDataD2Ev, symObjAddr: 0x20, symBinAddr: 0x1000141E0, symSize: 0x4 }
  - { offset: 0x14ECA8, size: 0x8, addend: 0x0, symName: __ZN5spicy2rt11MissingDataD1Ev, symObjAddr: 0x24, symBinAddr: 0x1000141E4, symSize: 0x4 }
  - { offset: 0x14ECCA, size: 0x8, addend: 0x0, symName: __ZN5spicy2rt11MissingDataD1Ev, symObjAddr: 0x24, symBinAddr: 0x1000141E4, symSize: 0x4 }
  - { offset: 0x14ECE5, size: 0x8, addend: 0x0, symName: __ZN5spicy2rt11MissingDataD1Ev, symObjAddr: 0x24, symBinAddr: 0x1000141E4, symSize: 0x4 }
  - { offset: 0x14ED1C, size: 0x8, addend: 0x0, symName: __ZN5spicy2rt11MissingDataD0Ev, symObjAddr: 0x28, symBinAddr: 0x1000141E8, symSize: 0x14 }
  - { offset: 0x14ED9B, size: 0x8, addend: 0x0, symName: __ZN5spicy2rt10ParseErrorD1Ev, symObjAddr: 0x3C, symBinAddr: 0x1000141FC, symSize: 0x4 }
  - { offset: 0x14EDBD, size: 0x8, addend: 0x0, symName: __ZN5spicy2rt10ParseErrorD1Ev, symObjAddr: 0x3C, symBinAddr: 0x1000141FC, symSize: 0x4 }
  - { offset: 0x14EDF3, size: 0x8, addend: 0x0, symName: __ZN5spicy2rt10ParseErrorD0Ev, symObjAddr: 0x40, symBinAddr: 0x100014200, symSize: 0x14 }
  - { offset: 0x14EEA1, size: 0x8, addend: 0x0, symName: __ZN5spicy2rt6Parser14_initProfilingEv, symObjAddr: 0x54, symBinAddr: 0x100014214, symSize: 0x3C }
  - { offset: 0x1502C8, size: 0x8, addend: 0x0, symName: __ZNSt3__16__treeINS_12__value_typeINS_12basic_stringIcNS_11char_traitsIcEENS_9allocatorIcEEEENS_6vectorIPKN5spicy2rt6ParserENS5_ISD_EEEEEENS_19__map_value_compareIS7_SG_NS_4lessIS7_EELb1EEENS5_ISG_EEE25__emplace_unique_key_argsIS7_JRKNS_21piecewise_construct_tENS_5tupleIJRKS7_EEENSR_IJEEEEEENS_4pairINS_15__tree_iteratorISG_PNS_11__tree_nodeISG_PvEElEEbEERKT_DpOT0_, symObjAddr: 0x8434, symBinAddr: 0x100019930, symSize: 0x1A0 }
  - { offset: 0x1509E6, size: 0x8, addend: 0x0, symName: __ZNSt3__16__treeINS_12__value_typeINS_12basic_stringIcNS_11char_traitsIcEENS_9allocatorIcEEEENS_6vectorIPKN5spicy2rt6ParserENS5_ISD_EEEEEENS_19__map_value_compareIS7_SG_NS_4lessIS7_EELb1EEENS5_ISG_EEE25__emplace_unique_key_argsIS7_JRKNS_21piecewise_construct_tENS_5tupleIJOS7_EEENSR_IJEEEEEENS_4pairINS_15__tree_iteratorISG_PNS_11__tree_nodeISG_PvEElEEbEERKT_DpOT0_, symObjAddr: 0x8814, symBinAddr: 0x100019C84, symSize: 0x17C }
  - { offset: 0x151B9D, size: 0x8, addend: 0x0, symName: __ZNSt3__120back_insert_iteratorINS_6vectorIPKN5spicy2rt6ParserENS_9allocatorIS6_EEEEEaSB8ne180100ERKS6_, symObjAddr: 0x3880, symBinAddr: 0x1000178E0, symSize: 0x17C }
  - { offset: 0x153620, size: 0x8, addend: 0x0, symName: __ZNK5hilti2rt6stream4View3endEv, symObjAddr: 0x3E54, symBinAddr: 0x100017E04, symSize: 0x110 }
  - { offset: 0x153A2E, size: 0x8, addend: 0x0, symName: '__ZZZN5spicy2rt6detail16printParserStateENSt3__117basic_string_viewIcNS2_11char_traitsIcEEEERKN5hilti2rt14ValueReferenceINS8_6StreamEEERKNS2_8optionalINS8_6stream17SafeConstIteratorEEERKNSF_4ViewExRKSG_S6_bRKNSE_INS8_18RecoverableFailureEEEENK3$_0clEvENKUlSO_SO_E_clESO_SO_', symObjAddr: 0x3AAC, symBinAddr: 0x100017A5C, symSize: 0x3A8 }
  - { offset: 0x15574C, size: 0x8, addend: 0x0, symName: __ZNK5hilti2rt6Stream3endEv, symObjAddr: 0x3F64, symBinAddr: 0x100017F14, symSize: 0xDC }
  - { offset: 0x155E04, size: 0x8, addend: 0x0, symName: __ZN5hilti2rt6detail11DebugLogger9isEnabledENSt3__117basic_string_viewIcNS3_11char_traitsIcEEEE, symObjAddr: 0x1530, symBinAddr: 0x1000156F0, symSize: 0xC8 }
  - { offset: 0x156467, size: 0x8, addend: 0x0, symName: __ZNK5hilti2rt6stream4View4sizeEv, symObjAddr: 0x1B94, symBinAddr: 0x100015CF4, symSize: 0x6C }
  - { offset: 0x156604, size: 0x8, addend: 0x0, symName: __ZN5spicy2rt6detail17waitForInputOrEodERN5hilti2rt14ValueReferenceINS3_6StreamEEERKNS3_6stream4ViewERKNS3_15StrongReferenceINS3_6VectorINS0_6filter6detail9OneFilterENSt3__19allocatorISG_EEEEEE, symObjAddr: 0x1C00, symBinAddr: 0x100015D60, symSize: 0x580 }
  - { offset: 0x15660F, size: 0x8, addend: 0x0, symName: __ZNSt3__112basic_stringIcNS_11char_traitsIcEENS_9allocatorIcEEEC1INS_17basic_string_viewIcS2_EELi0EEERKT_, symObjAddr: 0x2180, symBinAddr: 0x1000162E0, symSize: 0xA8 }
  - { offset: 0x156986, size: 0x8, addend: 0x0, symName: __ZN5spicy2rt6detail19waitForInputNoThrowERN5hilti2rt14ValueReferenceINS3_6StreamEEERKNS3_6stream4ViewEyNS3_15StrongReferenceINS3_6VectorINS0_6filter6detail9OneFilterENSt3__19allocatorISG_EEEEEE, symObjAddr: 0x2228, symBinAddr: 0x100016388, symSize: 0x1E4 }
  - { offset: 0x15704C, size: 0x8, addend: 0x0, symName: __ZN5hilti2rt6vector8IteratorIN5spicy2rt6filter6detail9OneFilterENSt3__19allocatorIS7_EEEdeEv, symObjAddr: 0x6EEC, symBinAddr: 0x1000190B0, symSize: 0x1DC }
  - { offset: 0x157F13, size: 0x8, addend: 0x0, symName: __ZNK5hilti2rt6stream4View4findERKNS0_5BytesERKNS1_17SafeConstIteratorENS1_9DirectionE, symObjAddr: 0x2C04, symBinAddr: 0x100016D64, symSize: 0x12C }
  - { offset: 0x158287, size: 0x8, addend: 0x0, symName: __ZNK5hilti2rt6stream4View4findERKNS0_5BytesENS1_9DirectionE, symObjAddr: 0x2E20, symBinAddr: 0x100016F08, symSize: 0xEC }
  - { offset: 0x158671, size: 0x8, addend: 0x0, symName: __ZNSt3__15tupleIJbN5hilti2rt6stream17SafeConstIteratorEEED1Ev, symObjAddr: 0x2D30, symBinAddr: 0x100016E90, symSize: 0x78 }
  - { offset: 0x158CE1, size: 0x8, addend: 0x0, symName: __ZN5hilti2rt6stream6detail19UnsafeConstIteratorC2ERKNS1_17SafeConstIteratorE, symObjAddr: 0x7C70, symBinAddr: 0x100019520, symSize: 0x128 }
  - { offset: 0x159125, size: 0x8, addend: 0x0, symName: __ZNK5hilti2rt6stream6detail5Chain9unsafeEndEv, symObjAddr: 0x7E60, symBinAddr: 0x100019648, symSize: 0x118 }
  - { offset: 0x159857, size: 0x8, addend: 0x0, symName: __ZNK5hilti2rt6stream4View3subENS1_17SafeConstIteratorE, symObjAddr: 0x32A8, symBinAddr: 0x100017390, symSize: 0x170 }
  - { offset: 0x159F2D, size: 0x8, addend: 0x0, symName: __ZNK5hilti2rt6stream17SafeConstIteratorplERK7SafeIntIyNS0_7integer6detail16SafeIntExceptionEE, symObjAddr: 0x3418, symBinAddr: 0x100017500, symSize: 0x58 }
  - { offset: 0x15A073, size: 0x8, addend: 0x0, symName: __ZNK5hilti2rt6stream4View4dataEv, symObjAddr: 0x3470, symBinAddr: 0x100017558, symSize: 0x48 }
  - { offset: 0x15A704, size: 0x8, addend: 0x0, symName: __ZNK5hilti2rt6stream4View3endEv.cold.1, symObjAddr: 0x9790, symBinAddr: 0x100058584, symSize: 0x44 }
  - { offset: 0x15B7CE, size: 0x8, addend: 0x0, symName: __ZN10tinyformat6detail9FormatArg10formatImplIxEEvRNSt3__113basic_ostreamIcNS3_11char_traitsIcEEEEPKcSA_iPKv, symObjAddr: 0x5818, symBinAddr: 0x1000181A8, symSize: 0x60 }
  - { offset: 0x15B8E2, size: 0x8, addend: 0x0, symName: __ZN10tinyformat6detail9FormatArg9toIntImplIxEEiPKv, symObjAddr: 0x5878, symBinAddr: 0x100018208, symSize: 0x8 }
  - { offset: 0x15B909, size: 0x8, addend: 0x0, symName: __ZN10tinyformat6detail9FormatArg9toIntImplIxEEiPKv, symObjAddr: 0x5878, symBinAddr: 0x100018208, symSize: 0x8 }
  - { offset: 0x15BEDF, size: 0x8, addend: 0x0, symName: __ZN10tinyformat6detail9FormatArg10formatImplINSt3__117basic_string_viewIcNS3_11char_traitsIcEEEEEEvRNS3_13basic_ostreamIcS6_EEPKcSC_iPKv, symObjAddr: 0x61AC, symBinAddr: 0x1000186F8, symSize: 0x18 }
  - { offset: 0x15BF43, size: 0x8, addend: 0x0, symName: __ZN10tinyformat6detail9FormatArg10formatImplINSt3__117basic_string_viewIcNS3_11char_traitsIcEEEEEEvRNS3_13basic_ostreamIcS6_EEPKcSC_iPKv, symObjAddr: 0x61AC, symBinAddr: 0x1000186F8, symSize: 0x18 }
  - { offset: 0x15BFD5, size: 0x8, addend: 0x0, symName: __ZN10tinyformat6detail9FormatArg9toIntImplINSt3__117basic_string_viewIcNS3_11char_traitsIcEEEEEEiPKv, symObjAddr: 0x61C4, symBinAddr: 0x100018710, symSize: 0x8 }
  - { offset: 0x15C003, size: 0x8, addend: 0x0, symName: __ZN10tinyformat6detail9FormatArg10formatImplIN5hilti2rt6stream4ViewEEEvRNSt3__113basic_ostreamIcNS7_11char_traitsIcEEEEPKcSE_iPKv, symObjAddr: 0x63CC, symBinAddr: 0x100018918, symSize: 0x14 }
  - { offset: 0x15C0CB, size: 0x8, addend: 0x0, symName: __ZN10tinyformat6detail9FormatArg9toIntImplIN5hilti2rt6stream4ViewEEEiPKv, symObjAddr: 0x63E0, symBinAddr: 0x10001892C, symSize: 0x8 }
  - { offset: 0x15C0F9, size: 0x8, addend: 0x0, symName: __ZN10tinyformat6detail9FormatArg10formatImplIPKN5hilti2rt6StreamEEEvRNSt3__113basic_ostreamIcNS8_11char_traitsIcEEEEPKcSF_iPKv, symObjAddr: 0x6768, symBinAddr: 0x100018C1C, symSize: 0x24 }
  - { offset: 0x15C15D, size: 0x8, addend: 0x0, symName: __ZN10tinyformat6detail9FormatArg10formatImplIPKN5hilti2rt6StreamEEEvRNSt3__113basic_ostreamIcNS8_11char_traitsIcEEEEPKcSF_iPKv, symObjAddr: 0x6768, symBinAddr: 0x100018C1C, symSize: 0x24 }
  - { offset: 0x15C1BB, size: 0x8, addend: 0x0, symName: __ZN10tinyformat6detail9FormatArg9toIntImplIPKN5hilti2rt6StreamEEEiPKv, symObjAddr: 0x678C, symBinAddr: 0x100018C40, symSize: 0x8 }
  - { offset: 0x15C207, size: 0x8, addend: 0x0, symName: __ZN10tinyformat6detail9FormatArg10formatImplIiEEvRNSt3__113basic_ostreamIcNS3_11char_traitsIcEEEEPKcSA_iPKv, symObjAddr: 0x6BDC, symBinAddr: 0x100018E48, symSize: 0x60 }
  - { offset: 0x15C31B, size: 0x8, addend: 0x0, symName: __ZN10tinyformat6detail9FormatArg9toIntImplIiEEiPKv, symObjAddr: 0x6C3C, symBinAddr: 0x100018EA8, symSize: 0x8 }
  - { offset: 0x15C342, size: 0x8, addend: 0x0, symName: __ZN10tinyformat6detail9FormatArg9toIntImplIiEEiPKv, symObjAddr: 0x6C3C, symBinAddr: 0x100018EA8, symSize: 0x8 }
  - { offset: 0x15C3D5, size: 0x8, addend: 0x0, symName: __ZNR5hilti2rt6VectorIN5spicy2rt6filter6detail9OneFilterENSt3__19allocatorIS6_EEEixEy, symObjAddr: 0x727C, symBinAddr: 0x100019408, symSize: 0x118 }
  - { offset: 0x15C677, size: 0x8, addend: 0x0, symName: __ZNSt3__120__shared_ptr_emplaceIPN5hilti2rt6VectorIN5spicy2rt6filter6detail9OneFilterENS_9allocatorIS8_EEEENS9_ISC_EEED1Ev, symObjAddr: 0x70C8, symBinAddr: 0x10001928C, symSize: 0x14 }
  - { offset: 0x15C699, size: 0x8, addend: 0x0, symName: __ZNSt3__120__shared_ptr_emplaceIPN5hilti2rt6VectorIN5spicy2rt6filter6detail9OneFilterENS_9allocatorIS8_EEEENS9_ISC_EEED1Ev, symObjAddr: 0x70C8, symBinAddr: 0x10001928C, symSize: 0x14 }
  - { offset: 0x15C6CF, size: 0x8, addend: 0x0, symName: __ZNSt3__120__shared_ptr_emplaceIPN5hilti2rt6VectorIN5spicy2rt6filter6detail9OneFilterENS_9allocatorIS8_EEEENS9_ISC_EEED0Ev, symObjAddr: 0x70DC, symBinAddr: 0x1000192A0, symSize: 0x24 }
  - { offset: 0x15C732, size: 0x8, addend: 0x0, symName: __ZNSt3__120__shared_ptr_emplaceIPN5hilti2rt6VectorIN5spicy2rt6filter6detail9OneFilterENS_9allocatorIS8_EEEENS9_ISC_EEE16__on_zero_sharedEv, symObjAddr: 0x7100, symBinAddr: 0x1000192C4, symSize: 0x4 }
  - { offset: 0x15C7AF, size: 0x8, addend: 0x0, symName: __ZNSt3__120__shared_ptr_emplaceIPN5hilti2rt6VectorIN5spicy2rt6filter6detail9OneFilterENS_9allocatorIS8_EEEENS9_ISC_EEE21__on_zero_shared_weakEv, symObjAddr: 0x7104, symBinAddr: 0x1000192C8, symSize: 0x4 }
  - { offset: 0x15C7E3, size: 0x8, addend: 0x0, symName: __ZNSt3__120__shared_ptr_emplaceIPN5hilti2rt6VectorIN5spicy2rt6filter6detail9OneFilterENS_9allocatorIS8_EEEENS9_ISC_EEE21__on_zero_shared_weakEv, symObjAddr: 0x7104, symBinAddr: 0x1000192C8, symSize: 0x4 }
  - { offset: 0x15C805, size: 0x8, addend: 0x0, symName: __ZNSt3__120__shared_ptr_emplaceIPN5hilti2rt6VectorIN5spicy2rt6filter6detail9OneFilterENS_9allocatorIS8_EEEENS9_ISC_EEE21__on_zero_shared_weakEv, symObjAddr: 0x7104, symBinAddr: 0x1000192C8, symSize: 0x4 }
  - { offset: 0x15C827, size: 0x8, addend: 0x0, symName: __ZNSt3__120__shared_ptr_emplaceIPN5hilti2rt6VectorIN5spicy2rt6filter6detail9OneFilterENS_9allocatorIS8_EEEENS9_ISC_EEE21__on_zero_shared_weakEv, symObjAddr: 0x7104, symBinAddr: 0x1000192C8, symSize: 0x4 }
  - { offset: 0x15C852, size: 0x8, addend: 0x0, symName: __ZNSt3__120__shared_ptr_emplaceIPN5hilti2rt6VectorIN5spicy2rt6filter6detail9OneFilterENS_9allocatorIS8_EEEENS9_ISC_EEE21__on_zero_shared_weakEv, symObjAddr: 0x7104, symBinAddr: 0x1000192C8, symSize: 0x4 }
  - { offset: 0x15C878, size: 0x8, addend: 0x0, symName: __ZNSt3__120__shared_ptr_emplaceIPN5hilti2rt6VectorIN5spicy2rt6filter6detail9OneFilterENS_9allocatorIS8_EEEENS9_ISC_EEE21__on_zero_shared_weakEv, symObjAddr: 0x7104, symBinAddr: 0x1000192C8, symSize: 0x4 }
  - { offset: 0x15DA1A, size: 0x8, addend: 0x0, symName: __ZNSt3__127__tree_balance_after_insertB8ne180100IPNS_16__tree_node_baseIPvEEEEvT_S5_, symObjAddr: 0x8660, symBinAddr: 0x100019AD0, symSize: 0x1B4 }
  - { offset: 0x15DFFC, size: 0x8, addend: 0x0, symName: __ZN10tinyformat6detail9FormatArg10formatImplIN5hilti2rt5BytesEEEvRNSt3__113basic_ostreamIcNS6_11char_traitsIcEEEEPKcSD_iPKv, symObjAddr: 0x92B0, symBinAddr: 0x10001A720, symSize: 0xC8 }
  - { offset: 0x15E41D, size: 0x8, addend: 0x0, symName: __ZN10tinyformat6detail9FormatArg9toIntImplIN5hilti2rt5BytesEEEiPKv, symObjAddr: 0x9378, symBinAddr: 0x10001A7E8, symSize: 0x8 }
  - { offset: 0x15E4CF, size: 0x8, addend: 0x0, symName: _OUTLINED_FUNCTION_0, symObjAddr: 0x9818, symBinAddr: 0x10001AC00, symSize: 0x8 }
  - { offset: 0x1602EB, size: 0x8, addend: 0x0, symName: __ZN5spicy2rt15ContextMismatchD2Ev, symObjAddr: 0x0, symBinAddr: 0x10001AC08, symSize: 0x4 }
  - { offset: 0x1637D0, size: 0x8, addend: 0x0, symName: __ZN5spicy2rt15ContextMismatchD2Ev, symObjAddr: 0x0, symBinAddr: 0x10001AC08, symSize: 0x4 }
  - { offset: 0x163812, size: 0x8, addend: 0x0, symName: __ZN5spicy2rt15ContextMismatchD1Ev, symObjAddr: 0x4, symBinAddr: 0x10001AC0C, symSize: 0x4 }
  - { offset: 0x163834, size: 0x8, addend: 0x0, symName: __ZN5spicy2rt15ContextMismatchD1Ev, symObjAddr: 0x4, symBinAddr: 0x10001AC0C, symSize: 0x4 }
  - { offset: 0x16386A, size: 0x8, addend: 0x0, symName: __ZN5spicy2rt15ContextMismatchD0Ev, symObjAddr: 0x8, symBinAddr: 0x10001AC10, symSize: 0x14 }
  - { offset: 0x16392D, size: 0x8, addend: 0x0, symName: __ZN5spicy2rt11UnitContextD2Ev, symObjAddr: 0x1C, symBinAddr: 0x10001AC24, symSize: 0x44 }
  - { offset: 0x1639E3, size: 0x8, addend: 0x0, symName: __ZN5spicy2rt11UnitContextD1Ev, symObjAddr: 0x60, symBinAddr: 0x10001AC68, symSize: 0x44 }
  - { offset: 0x163AAF, size: 0x8, addend: 0x0, symName: __ZN5spicy2rt11UnitContextD0Ev, symObjAddr: 0xA4, symBinAddr: 0x10001ACAC, symSize: 0x40 }
  - { offset: 0x16BC67, size: 0x8, addend: 0x0, symName: __ZNSt3__120__throw_out_of_rangeB8ne180100EPKc, symObjAddr: 0xCF0, symBinAddr: 0x10001B830, symSize: 0x50 }
  - { offset: 0x16EC19, size: 0x8, addend: 0x0, symName: __ZN10tinyformat6formatIJPcEEENSt3__112basic_stringIcNS2_11char_traitsIcEENS2_9allocatorIcEEEEPKcDpRKT_, symObjAddr: 0x25DC, symBinAddr: 0x10001BCB4, symSize: 0x1B8 }
  - { offset: 0x16F039, size: 0x8, addend: 0x0, symName: __ZN10tinyformat6formatIJPcNSt3__112basic_stringIcNS2_11char_traitsIcEENS2_9allocatorIcEEEEEEES8_PKcDpRKT_, symObjAddr: 0xF20, symBinAddr: 0x10001BA4C, symSize: 0x1D0 }
  - { offset: 0x16FAEB, size: 0x8, addend: 0x0, symName: __ZN5hilti2rt8demangleERKNSt3__112basic_stringIcNS1_11char_traitsIcEENS1_9allocatorIcEEEE, symObjAddr: 0x5A4, symBinAddr: 0x10001B230, symSize: 0x128 }
  - { offset: 0x170019, size: 0x8, addend: 0x0, symName: __ZNSt3__110unique_ptrINS_6vectorINS_12basic_stringIcNS_11char_traitsIcEENS_9allocatorIcEEEENS5_IS7_EEEENS_14default_deleteIS9_EEED1B8ne180100Ev, symObjAddr: 0x6CC, symBinAddr: 0x10001B358, symSize: 0x84 }
  - { offset: 0x17002A, size: 0x8, addend: 0x0, symName: __ZN5hilti2rteqERKNS0_9BacktraceES3_, symObjAddr: 0x750, symBinAddr: 0x10001B3DC, symSize: 0x454 }
  - { offset: 0x1700DA, size: 0x8, addend: 0x0, symName: __ZN5hilti2rt9BacktraceC2Ev, symObjAddr: 0x0, symBinAddr: 0x10001ACEC, symSize: 0xCC }
  - { offset: 0x170457, size: 0x8, addend: 0x0, symName: __ZN5hilti2rt9BacktraceC1Ev, symObjAddr: 0x12C, symBinAddr: 0x10001ADB8, symSize: 0xB8 }
  - { offset: 0x1706FF, size: 0x8, addend: 0x0, symName: __ZN5hilti2rt9BacktraceC1Ev.cold.1, symObjAddr: 0x2794, symBinAddr: 0x1000585C8, symSize: 0x48 }
  - { offset: 0x170DC6, size: 0x8, addend: 0x0, symName: __ZNK5hilti2rt9Backtrace9backtraceEv, symObjAddr: 0x1E4, symBinAddr: 0x10001AE70, symSize: 0x3C0 }
  - { offset: 0x17246D, size: 0x8, addend: 0x0, symName: __ZNSt3__16vectorINS_12basic_stringIcNS_11char_traitsIcEENS_9allocatorIcEEEENS4_IS6_EEE21__push_back_slow_pathIS6_EEPS6_OT_, symObjAddr: 0xDA4, symBinAddr: 0x10001B8E4, symSize: 0x168 }
  - { offset: 0x172A6D, size: 0x8, addend: 0x0, symName: __ZNSt3__110unique_ptrINS_6vectorINS_12basic_stringIcNS_11char_traitsIcEENS_9allocatorIcEEEENS5_IS7_EEEENS_14default_deleteIS9_EEED1B8ne180100Ev, symObjAddr: 0x6CC, symBinAddr: 0x10001B358, symSize: 0x84 }
  - { offset: 0x173293, size: 0x8, addend: 0x0, symName: __ZNSt12out_of_rangeC1B8ne180100EPKc, symObjAddr: 0xD40, symBinAddr: 0x10001B880, symSize: 0x24 }
  - { offset: 0x173337, size: 0x8, addend: 0x0, symName: __ZNSt3__120__shared_ptr_emplaceINS_5arrayIPvLm32EEENS_9allocatorIS3_EEED1Ev, symObjAddr: 0xD64, symBinAddr: 0x10001B8A4, symSize: 0x14 }
  - { offset: 0x173359, size: 0x8, addend: 0x0, symName: __ZNSt3__120__shared_ptr_emplaceINS_5arrayIPvLm32EEENS_9allocatorIS3_EEED1Ev, symObjAddr: 0xD64, symBinAddr: 0x10001B8A4, symSize: 0x14 }
  - { offset: 0x17338F, size: 0x8, addend: 0x0, symName: __ZNSt3__120__shared_ptr_emplaceINS_5arrayIPvLm32EEENS_9allocatorIS3_EEED0Ev, symObjAddr: 0xD78, symBinAddr: 0x10001B8B8, symSize: 0x24 }
  - { offset: 0x1733F2, size: 0x8, addend: 0x0, symName: __ZNSt3__120__shared_ptr_emplaceINS_5arrayIPvLm32EEENS_9allocatorIS3_EEE16__on_zero_sharedEv, symObjAddr: 0xD9C, symBinAddr: 0x10001B8DC, symSize: 0x4 }
  - { offset: 0x17346F, size: 0x8, addend: 0x0, symName: __ZNSt3__120__shared_ptr_emplaceINS_5arrayIPvLm32EEENS_9allocatorIS3_EEE21__on_zero_shared_weakEv, symObjAddr: 0xDA0, symBinAddr: 0x10001B8E0, symSize: 0x4 }
  - { offset: 0x1734A3, size: 0x8, addend: 0x0, symName: __ZNSt3__120__shared_ptr_emplaceINS_5arrayIPvLm32EEENS_9allocatorIS3_EEE21__on_zero_shared_weakEv, symObjAddr: 0xDA0, symBinAddr: 0x10001B8E0, symSize: 0x4 }
  - { offset: 0x1734C5, size: 0x8, addend: 0x0, symName: __ZNSt3__120__shared_ptr_emplaceINS_5arrayIPvLm32EEENS_9allocatorIS3_EEE21__on_zero_shared_weakEv, symObjAddr: 0xDA0, symBinAddr: 0x10001B8E0, symSize: 0x4 }
  - { offset: 0x1734E7, size: 0x8, addend: 0x0, symName: __ZNSt3__120__shared_ptr_emplaceINS_5arrayIPvLm32EEENS_9allocatorIS3_EEE21__on_zero_shared_weakEv, symObjAddr: 0xDA0, symBinAddr: 0x10001B8E0, symSize: 0x4 }
  - { offset: 0x173514, size: 0x8, addend: 0x0, symName: __ZNSt3__120__shared_ptr_emplaceINS_5arrayIPvLm32EEENS_9allocatorIS3_EEE21__on_zero_shared_weakEv, symObjAddr: 0xDA0, symBinAddr: 0x10001B8E0, symSize: 0x4 }
  - { offset: 0x17353C, size: 0x8, addend: 0x0, symName: __ZNSt3__120__shared_ptr_emplaceINS_5arrayIPvLm32EEENS_9allocatorIS3_EEE21__on_zero_shared_weakEv, symObjAddr: 0xDA0, symBinAddr: 0x10001B8E0, symSize: 0x4 }
  - { offset: 0x1737BF, size: 0x8, addend: 0x0, symName: __ZN10tinyformat6formatIJPcNSt3__112basic_stringIcNS2_11char_traitsIcEENS2_9allocatorIcEEEEEEES8_PKcDpRKT_, symObjAddr: 0xF20, symBinAddr: 0x10001BA4C, symSize: 0x1D0 }
  - { offset: 0x17413B, size: 0x8, addend: 0x0, symName: __ZN10tinyformat6detail9FormatArg10formatImplIPcEEvRNSt3__113basic_ostreamIcNS4_11char_traitsIcEEEEPKcSB_iPKv, symObjAddr: 0x22FC, symBinAddr: 0x10001BC1C, symSize: 0x90 }
  - { offset: 0x1742D9, size: 0x8, addend: 0x0, symName: __ZN10tinyformat6detail9FormatArg9toIntImplIPcEEiPKv, symObjAddr: 0x238C, symBinAddr: 0x10001BCAC, symSize: 0x8 }
  - { offset: 0x176279, size: 0x8, addend: 0x0, symName: __ZN5hilti2rt13configuration6detail15__configurationE, symObjAddr: 0x38E60, symBinAddr: 0x1000BC748, symSize: 0x0 }
  - { offset: 0x176288, size: 0x8, addend: 0x0, symName: __ZN5hilti2rt13configuration3setENS0_13ConfigurationE, symObjAddr: 0x140, symBinAddr: 0x10001BFAC, symSize: 0x144 }
  - { offset: 0x181FDD, size: 0x8, addend: 0x0, symName: __ZNSt3__110unique_ptrIN5hilti2rt13ConfigurationENS_14default_deleteIS3_EEED1B8ne180100Ev, symObjAddr: 0x0, symBinAddr: 0x10001BE6C, symSize: 0x5C }
  - { offset: 0x18279E, size: 0x8, addend: 0x0, symName: __ZN5hilti2rt13ConfigurationC2Ev, symObjAddr: 0x5C, symBinAddr: 0x10001BEC8, symSize: 0xE0 }
  - { offset: 0x182DE3, size: 0x8, addend: 0x0, symName: __ZN5hilti2rt13ConfigurationC1Ev, symObjAddr: 0x13C, symBinAddr: 0x10001BFA8, symSize: 0x4 }
  - { offset: 0x182E10, size: 0x8, addend: 0x0, symName: __ZN5hilti2rt13ConfigurationC1Ev, symObjAddr: 0x13C, symBinAddr: 0x10001BFA8, symSize: 0x4 }
  - { offset: 0x18503D, size: 0x8, addend: 0x0, symName: __ZN5hilti2rt7context6detailL9__currentE, symObjAddr: 0x1F52, symBinAddr: 0x1000BC300, symSize: 0x0 }
  - { offset: 0x18504C, size: 0x8, addend: 0x0, symName: __ZN5hilti2rt7context6detail7currentEv, symObjAddr: 0x0, symBinAddr: 0x10001C10C, symSize: 0x20 }
  - { offset: 0x18507D, size: 0x8, addend: 0x0, symName: __ZN5hilti2rt7context6detail3setEPNS0_7ContextE, symObjAddr: 0x20, symBinAddr: 0x10001C12C, symSize: 0x30 }
  - { offset: 0x1850DB, size: 0x8, addend: 0x0, symName: __ZN5hilti2rt7context6detail6masterEv, symObjAddr: 0x650, symBinAddr: 0x10001C654, symSize: 0x34 }
  - { offset: 0x1997FA, size: 0x8, addend: 0x0, symName: __ZN5hilti2rt7ContextC2Ex, symObjAddr: 0x50, symBinAddr: 0x10001C15C, symSize: 0x1C0 }
  - { offset: 0x199BF3, size: 0x8, addend: 0x0, symName: __ZNSt3__16vectorINS_10shared_ptrIvEENS_9allocatorIS2_EEED1B8ne180100Ev, symObjAddr: 0x210, symBinAddr: 0x10001C31C, symSize: 0x98 }
  - { offset: 0x199F85, size: 0x8, addend: 0x0, symName: __ZN5hilti2rt7ContextC1Ex, symObjAddr: 0x2A8, symBinAddr: 0x10001C3B4, symSize: 0x4 }
  - { offset: 0x199FC1, size: 0x8, addend: 0x0, symName: __ZN5hilti2rt7ContextC1Ex, symObjAddr: 0x2A8, symBinAddr: 0x10001C3B4, symSize: 0x4 }
  - { offset: 0x19A10D, size: 0x8, addend: 0x0, symName: __ZN5hilti2rt7ContextD2Ev, symObjAddr: 0x2AC, symBinAddr: 0x10001C3B8, symSize: 0x298 }
  - { offset: 0x19AA40, size: 0x8, addend: 0x0, symName: __ZN5hilti2rt7ContextD1Ev, symObjAddr: 0x64C, symBinAddr: 0x10001C650, symSize: 0x4 }
  - { offset: 0x19AA6E, size: 0x8, addend: 0x0, symName: __ZN5hilti2rt7ContextD1Ev, symObjAddr: 0x64C, symBinAddr: 0x10001C650, symSize: 0x4 }
  - { offset: 0x1AD485, size: 0x8, addend: 0x0, symName: __ZN3ghc10filesystemlsIcNSt3__111char_traitsIcEEEERNS2_13basic_ostreamIT_T0_EES9_RKNS0_4pathE, symObjAddr: 0x27B8, symBinAddr: 0x10001D95C, symSize: 0x1E0 }
  - { offset: 0x1B024E, size: 0x8, addend: 0x0, symName: __ZN10tinyformat6detail15formatTruncatedIN3ghc10filesystem4pathEEEvRNSt3__113basic_ostreamIcNS5_11char_traitsIcEEEERKT_i, symObjAddr: 0x25B8, symBinAddr: 0x10001D75C, symSize: 0x200 }
  - { offset: 0x1B0885, size: 0x8, addend: 0x0, symName: __ZN10tinyformat6formatIJN3ghc10filesystem4pathEEEENSt3__112basic_stringIcNS4_11char_traitsIcEENS4_9allocatorIcEEEEPKcDpRKT_, symObjAddr: 0x14E0, symBinAddr: 0x10001D588, symSize: 0x1B8 }
  - { offset: 0x1B0CA5, size: 0x8, addend: 0x0, symName: __ZN10tinyformat6formatIJNSt3__117basic_string_viewIcNS1_11char_traitsIcEEEENS1_12basic_stringIcS4_NS1_9allocatorIcEEEES5_EEES9_PKcDpRKT_, symObjAddr: 0x2998, symBinAddr: 0x10001DB3C, symSize: 0x1DC }
  - { offset: 0x1B16D5, size: 0x8, addend: 0x0, symName: __ZN5hilti2rt6detail11DebugLoggerC2EN3ghc10filesystem4pathE, symObjAddr: 0x0, symBinAddr: 0x10001C688, symSize: 0x30 }
  - { offset: 0x1B16FF, size: 0x8, addend: 0x0, symName: __ZN5hilti2rt6detail11DebugLoggerC2EN3ghc10filesystem4pathE, symObjAddr: 0x0, symBinAddr: 0x10001C688, symSize: 0x30 }
  - { offset: 0x1B1721, size: 0x8, addend: 0x0, symName: __ZN5hilti2rt6detail11DebugLoggerC2EN3ghc10filesystem4pathE, symObjAddr: 0x0, symBinAddr: 0x10001C688, symSize: 0x30 }
  - { offset: 0x1B1744, size: 0x8, addend: 0x0, symName: __ZN5hilti2rt6detail11DebugLoggerC2EN3ghc10filesystem4pathE, symObjAddr: 0x0, symBinAddr: 0x10001C688, symSize: 0x30 }
  - { offset: 0x1B1767, size: 0x8, addend: 0x0, symName: __ZN5hilti2rt6detail11DebugLoggerC2EN3ghc10filesystem4pathE, symObjAddr: 0x0, symBinAddr: 0x10001C688, symSize: 0x30 }
  - { offset: 0x1B190A, size: 0x8, addend: 0x0, symName: __ZN5hilti2rt6detail11DebugLoggerC1EN3ghc10filesystem4pathE, symObjAddr: 0x30, symBinAddr: 0x10001C6B8, symSize: 0x30 }
  - { offset: 0x1B1945, size: 0x8, addend: 0x0, symName: __ZN5hilti2rt6detail11DebugLoggerC1EN3ghc10filesystem4pathE, symObjAddr: 0x30, symBinAddr: 0x10001C6B8, symSize: 0x30 }
  - { offset: 0x1B1968, size: 0x8, addend: 0x0, symName: __ZN5hilti2rt6detail11DebugLoggerC1EN3ghc10filesystem4pathE, symObjAddr: 0x30, symBinAddr: 0x10001C6B8, symSize: 0x30 }
  - { offset: 0x1B198A, size: 0x8, addend: 0x0, symName: __ZN5hilti2rt6detail11DebugLoggerC1EN3ghc10filesystem4pathE, symObjAddr: 0x30, symBinAddr: 0x10001C6B8, symSize: 0x30 }
  - { offset: 0x1B19AD, size: 0x8, addend: 0x0, symName: __ZN5hilti2rt6detail11DebugLoggerC1EN3ghc10filesystem4pathE, symObjAddr: 0x30, symBinAddr: 0x10001C6B8, symSize: 0x30 }
  - { offset: 0x1B19D0, size: 0x8, addend: 0x0, symName: __ZN5hilti2rt6detail11DebugLoggerC1EN3ghc10filesystem4pathE, symObjAddr: 0x30, symBinAddr: 0x10001C6B8, symSize: 0x30 }
  - { offset: 0x1B1EAF, size: 0x8, addend: 0x0, symName: __ZN5hilti2rt6detail11DebugLogger6enableENSt3__117basic_string_viewIcNS3_11char_traitsIcEEEE, symObjAddr: 0x60, symBinAddr: 0x10001C6E8, symSize: 0x184 }
  - { offset: 0x1B2687, size: 0x8, addend: 0x0, symName: __ZNSt3__16__treeINS_12__value_typeINS_17basic_string_viewIcNS_11char_traitsIcEEEE7SafeIntIyN5hilti2rt7integer6detail16SafeIntExceptionEEEENS_19__map_value_compareIS5_SD_NS_4lessIS5_EELb1EEENS_9allocatorISD_EEE25__emplace_unique_key_argsIS5_JRKNS_21piecewise_construct_tENS_5tupleIJOS5_EEENSP_IJEEEEEENS_4pairINS_15__tree_iteratorISD_PNS_11__tree_nodeISD_PvEElEEbEERKT_DpOT0_, symObjAddr: 0xE8C, symBinAddr: 0x10001D174, symSize: 0x12C }
  - { offset: 0x1B339F, size: 0x8, addend: 0x0, symName: __ZN5hilti2rt6detail11DebugLogger5printENSt3__117basic_string_viewIcNS3_11char_traitsIcEEEES7_, symObjAddr: 0x1E4, symBinAddr: 0x10001C86C, symSize: 0x3E4 }
  - { offset: 0x1B4AFF, size: 0x8, addend: 0x0, symName: __ZN3ghc10filesystem4path28postprocess_path_with_formatENS1_6formatE, symObjAddr: 0x116C, symBinAddr: 0x10001D2A0, symSize: 0x1C8 }
  - { offset: 0x1B4B72, size: 0x8, addend: 0x0, symName: __ZN3ghc10filesystem4path28postprocess_path_with_formatENS1_6formatE, symObjAddr: 0x116C, symBinAddr: 0x10001D2A0, symSize: 0x1C8 }
  - { offset: 0x1B4EC1, size: 0x8, addend: 0x0, symName: __ZNK3ghc10filesystem4path7compareERKS1_, symObjAddr: 0x660, symBinAddr: 0x10001CC50, symSize: 0x3D8 }
  - { offset: 0x1B5684, size: 0x8, addend: 0x0, symName: __ZN10tinyformat6formatIJN3ghc10filesystem4pathEEEENSt3__112basic_stringIcNS4_11char_traitsIcEENS4_9allocatorIcEEEEPKcDpRKT_, symObjAddr: 0x14E0, symBinAddr: 0x10001D588, symSize: 0x1B8 }
  - { offset: 0x1B5695, size: 0x8, addend: 0x0, symName: __ZNSt3__114basic_ofstreamIcNS_11char_traitsIcEEEC1ERKNS_12basic_stringIcS2_NS_9allocatorIcEEEEj, symObjAddr: 0x1334, symBinAddr: 0x10001D468, symSize: 0x120 }
  - { offset: 0x1B5A07, size: 0x8, addend: 0x0, symName: __ZNK3ghc10filesystem4path18has_root_directoryEv, symObjAddr: 0xA38, symBinAddr: 0x10001D028, symSize: 0x14C }
  - { offset: 0x1B6884, size: 0x8, addend: 0x0, symName: __ZN10tinyformat6detail9FormatArg10formatImplIN3ghc10filesystem4pathEEEvRNSt3__113basic_ostreamIcNS6_11char_traitsIcEEEEPKcSD_iPKv, symObjAddr: 0x259C, symBinAddr: 0x10001D740, symSize: 0x14 }
  - { offset: 0x1B694C, size: 0x8, addend: 0x0, symName: __ZN10tinyformat6detail9FormatArg9toIntImplIN3ghc10filesystem4pathEEEiPKv, symObjAddr: 0x25B0, symBinAddr: 0x10001D754, symSize: 0x8 }
  - { offset: 0x1CBC52, size: 0x8, addend: 0x0, symName: __ZN5hilti2rt9exception13printUncaughtERKNS0_9ExceptionE, symObjAddr: 0x46A4, symBinAddr: 0x1000223AC, symSize: 0x94 }
  - { offset: 0x1CC0F5, size: 0x8, addend: 0x0, symName: __ZN5hilti2rt9exception13printUncaughtERKNS0_9ExceptionERNSt3__113basic_ostreamIcNS5_11char_traitsIcEEEE, symObjAddr: 0x4738, symBinAddr: 0x100022440, symSize: 0x90 }
  - { offset: 0x1CE914, size: 0x8, addend: 0x0, symName: __ZN10tinyformat6formatIJNSt3__117basic_string_viewIcNS1_11char_traitsIcEEEEPKcEEENS1_12basic_stringIcS4_NS1_9allocatorIcEEEES7_DpRKT_, symObjAddr: 0x4E94, symBinAddr: 0x1000225BC, symSize: 0x1D0 }
  - { offset: 0x1CEDB7, size: 0x8, addend: 0x0, symName: __ZN10tinyformat6formatIJNSt3__117basic_string_viewIcNS1_11char_traitsIcEEEES5_EEENS1_12basic_stringIcS4_NS1_9allocatorIcEEEEPKcDpRKT_, symObjAddr: 0x6220, symBinAddr: 0x10002278C, symSize: 0x1C0 }
  - { offset: 0x1CF25A, size: 0x8, addend: 0x0, symName: __ZN10tinyformat6formatIJNSt3__117basic_string_viewIcNS1_11char_traitsIcEEEEEEENS1_12basic_stringIcS4_NS1_9allocatorIcEEEEPKcDpRKT_, symObjAddr: 0x63E0, symBinAddr: 0x10002294C, symSize: 0x1B8 }
  - { offset: 0x1CFB01, size: 0x8, addend: 0x0, symName: __ZN5hilti2rt12RuntimeErrorD2Ev, symObjAddr: 0x0, symBinAddr: 0x10001DD18, symSize: 0xA4 }
  - { offset: 0x1CFEC3, size: 0x8, addend: 0x0, symName: __ZN5hilti2rt9ExceptionD2Ev, symObjAddr: 0xA4, symBinAddr: 0x10001DDBC, symSize: 0xA4 }
  - { offset: 0x1D0289, size: 0x8, addend: 0x0, symName: __ZN5hilti2rt12RuntimeErrorD1Ev, symObjAddr: 0x148, symBinAddr: 0x10001DE60, symSize: 0xA4 }
  - { offset: 0x1D0685, size: 0x8, addend: 0x0, symName: __ZN5hilti2rt12RuntimeErrorD0Ev, symObjAddr: 0x1EC, symBinAddr: 0x10001DF04, symSize: 0xAC }
  - { offset: 0x1D0A76, size: 0x8, addend: 0x0, symName: __ZN5hilti2rt10UsageErrorD2Ev, symObjAddr: 0x298, symBinAddr: 0x10001DFB0, symSize: 0xA4 }
  - { offset: 0x1D0E5A, size: 0x8, addend: 0x0, symName: __ZN5hilti2rt10UsageErrorD1Ev, symObjAddr: 0x33C, symBinAddr: 0x10001E054, symSize: 0xA4 }
  - { offset: 0x1D1256, size: 0x8, addend: 0x0, symName: __ZN5hilti2rt10UsageErrorD0Ev, symObjAddr: 0x3E0, symBinAddr: 0x10001E0F8, symSize: 0xAC }
  - { offset: 0x1D1647, size: 0x8, addend: 0x0, symName: __ZN5hilti2rt18RecoverableFailureD2Ev, symObjAddr: 0x48C, symBinAddr: 0x10001E1A4, symSize: 0xA4 }
  - { offset: 0x1D1A49, size: 0x8, addend: 0x0, symName: __ZN5hilti2rt18RecoverableFailureD1Ev, symObjAddr: 0x530, symBinAddr: 0x10001E248, symSize: 0xA4 }
  - { offset: 0x1D1E63, size: 0x8, addend: 0x0, symName: __ZN5hilti2rt18RecoverableFailureD0Ev, symObjAddr: 0x5D4, symBinAddr: 0x10001E2EC, symSize: 0xAC }
  - { offset: 0x1D2270, size: 0x8, addend: 0x0, symName: __ZN5hilti2rt16AssertionFailureD2Ev, symObjAddr: 0x680, symBinAddr: 0x10001E398, symSize: 0xA4 }
  - { offset: 0x1D2672, size: 0x8, addend: 0x0, symName: __ZN5hilti2rt16AssertionFailureD1Ev, symObjAddr: 0x724, symBinAddr: 0x10001E43C, symSize: 0xA4 }
  - { offset: 0x1D2A8C, size: 0x8, addend: 0x0, symName: __ZN5hilti2rt16AssertionFailureD0Ev, symObjAddr: 0x7C8, symBinAddr: 0x10001E4E0, symSize: 0xAC }
  - { offset: 0x1D2E99, size: 0x8, addend: 0x0, symName: __ZN5hilti2rt15AttributeNotSetD2Ev, symObjAddr: 0x874, symBinAddr: 0x10001E58C, symSize: 0xA4 }
  - { offset: 0x1D329B, size: 0x8, addend: 0x0, symName: __ZN5hilti2rt15AttributeNotSetD1Ev, symObjAddr: 0x918, symBinAddr: 0x10001E630, symSize: 0xA4 }
  - { offset: 0x1D36B5, size: 0x8, addend: 0x0, symName: __ZN5hilti2rt15AttributeNotSetD0Ev, symObjAddr: 0x9BC, symBinAddr: 0x10001E6D4, symSize: 0xAC }
  - { offset: 0x1D3AC2, size: 0x8, addend: 0x0, symName: __ZN5hilti2rt14DivisionByZeroD2Ev, symObjAddr: 0xA68, symBinAddr: 0x10001E780, symSize: 0xA4 }
  - { offset: 0x1D3EC4, size: 0x8, addend: 0x0, symName: __ZN5hilti2rt14DivisionByZeroD1Ev, symObjAddr: 0xB0C, symBinAddr: 0x10001E824, symSize: 0xA4 }
  - { offset: 0x1D42DE, size: 0x8, addend: 0x0, symName: __ZN5hilti2rt14DivisionByZeroD0Ev, symObjAddr: 0xBB0, symBinAddr: 0x10001E8C8, symSize: 0xAC }
  - { offset: 0x1D46EB, size: 0x8, addend: 0x0, symName: __ZN5hilti2rt16EnvironmentErrorD2Ev, symObjAddr: 0xC5C, symBinAddr: 0x10001E974, symSize: 0xA4 }
  - { offset: 0x1D4AED, size: 0x8, addend: 0x0, symName: __ZN5hilti2rt16EnvironmentErrorD1Ev, symObjAddr: 0xD00, symBinAddr: 0x10001EA18, symSize: 0xA4 }
  - { offset: 0x1D4F07, size: 0x8, addend: 0x0, symName: __ZN5hilti2rt16EnvironmentErrorD0Ev, symObjAddr: 0xDA4, symBinAddr: 0x10001EABC, symSize: 0xAC }
  - { offset: 0x1D5314, size: 0x8, addend: 0x0, symName: __ZN5hilti2rt16ExpiredReferenceD2Ev, symObjAddr: 0xE50, symBinAddr: 0x10001EB68, symSize: 0xA4 }
  - { offset: 0x1D5716, size: 0x8, addend: 0x0, symName: __ZN5hilti2rt16ExpiredReferenceD1Ev, symObjAddr: 0xEF4, symBinAddr: 0x10001EC0C, symSize: 0xA4 }
  - { offset: 0x1D5B30, size: 0x8, addend: 0x0, symName: __ZN5hilti2rt16ExpiredReferenceD0Ev, symObjAddr: 0xF98, symBinAddr: 0x10001ECB0, symSize: 0xAC }
  - { offset: 0x1D5F3D, size: 0x8, addend: 0x0, symName: __ZN5hilti2rt6FrozenD2Ev, symObjAddr: 0x1044, symBinAddr: 0x10001ED5C, symSize: 0xA4 }
  - { offset: 0x1D633F, size: 0x8, addend: 0x0, symName: __ZN5hilti2rt6FrozenD1Ev, symObjAddr: 0x10E8, symBinAddr: 0x10001EE00, symSize: 0xA4 }
  - { offset: 0x1D6759, size: 0x8, addend: 0x0, symName: __ZN5hilti2rt6FrozenD0Ev, symObjAddr: 0x118C, symBinAddr: 0x10001EEA4, symSize: 0xAC }
  - { offset: 0x1D6B60, size: 0x8, addend: 0x0, symName: __ZN5hilti2rt16IllegalReferenceD2Ev, symObjAddr: 0x1238, symBinAddr: 0x10001EF50, symSize: 0xA4 }
  - { offset: 0x1D6F62, size: 0x8, addend: 0x0, symName: __ZN5hilti2rt16IllegalReferenceD1Ev, symObjAddr: 0x12DC, symBinAddr: 0x10001EFF4, symSize: 0xA4 }
  - { offset: 0x1D737C, size: 0x8, addend: 0x0, symName: __ZN5hilti2rt16IllegalReferenceD0Ev, symObjAddr: 0x1380, symBinAddr: 0x10001F098, symSize: 0xAC }
  - { offset: 0x1D7783, size: 0x8, addend: 0x0, symName: __ZN5hilti2rt10IndexErrorD2Ev, symObjAddr: 0x142C, symBinAddr: 0x10001F144, symSize: 0xA4 }
  - { offset: 0x1D7B85, size: 0x8, addend: 0x0, symName: __ZN5hilti2rt10IndexErrorD1Ev, symObjAddr: 0x14D0, symBinAddr: 0x10001F1E8, symSize: 0xA4 }
  - { offset: 0x1D7F9F, size: 0x8, addend: 0x0, symName: __ZN5hilti2rt10IndexErrorD0Ev, symObjAddr: 0x1574, symBinAddr: 0x10001F28C, symSize: 0xAC }
  - { offset: 0x1D83A6, size: 0x8, addend: 0x0, symName: __ZN5hilti2rt15InvalidArgumentD2Ev, symObjAddr: 0x1620, symBinAddr: 0x10001F338, symSize: 0xA4 }
  - { offset: 0x1D87A8, size: 0x8, addend: 0x0, symName: __ZN5hilti2rt15InvalidArgumentD1Ev, symObjAddr: 0x16C4, symBinAddr: 0x10001F3DC, symSize: 0xA4 }
  - { offset: 0x1D8BC2, size: 0x8, addend: 0x0, symName: __ZN5hilti2rt15InvalidArgumentD0Ev, symObjAddr: 0x1768, symBinAddr: 0x10001F480, symSize: 0xAC }
  - { offset: 0x1D8FC9, size: 0x8, addend: 0x0, symName: __ZN5hilti2rt15InvalidIteratorD2Ev, symObjAddr: 0x1814, symBinAddr: 0x10001F52C, symSize: 0xA4 }
  - { offset: 0x1D93CB, size: 0x8, addend: 0x0, symName: __ZN5hilti2rt15InvalidIteratorD1Ev, symObjAddr: 0x18B8, symBinAddr: 0x10001F5D0, symSize: 0xA4 }
  - { offset: 0x1D97E5, size: 0x8, addend: 0x0, symName: __ZN5hilti2rt15InvalidIteratorD0Ev, symObjAddr: 0x195C, symBinAddr: 0x10001F674, symSize: 0xAC }
  - { offset: 0x1D9BEC, size: 0x8, addend: 0x0, symName: __ZN5hilti2rt12InvalidValueD2Ev, symObjAddr: 0x1A08, symBinAddr: 0x10001F720, symSize: 0xA4 }
  - { offset: 0x1D9FEE, size: 0x8, addend: 0x0, symName: __ZN5hilti2rt12InvalidValueD1Ev, symObjAddr: 0x1AAC, symBinAddr: 0x10001F7C4, symSize: 0xA4 }
  - { offset: 0x1DA408, size: 0x8, addend: 0x0, symName: __ZN5hilti2rt12InvalidValueD0Ev, symObjAddr: 0x1B50, symBinAddr: 0x10001F868, symSize: 0xAC }
  - { offset: 0x1DA815, size: 0x8, addend: 0x0, symName: __ZN5hilti2rt15MatchStateReuseD2Ev, symObjAddr: 0x1BFC, symBinAddr: 0x10001F914, symSize: 0xA4 }
  - { offset: 0x1DAC17, size: 0x8, addend: 0x0, symName: __ZN5hilti2rt15MatchStateReuseD1Ev, symObjAddr: 0x1CA0, symBinAddr: 0x10001F9B8, symSize: 0xA4 }
  - { offset: 0x1DB031, size: 0x8, addend: 0x0, symName: __ZN5hilti2rt15MatchStateReuseD0Ev, symObjAddr: 0x1D44, symBinAddr: 0x10001FA5C, symSize: 0xAC }
  - { offset: 0x1DB438, size: 0x8, addend: 0x0, symName: __ZN5hilti2rt11MissingDataD2Ev, symObjAddr: 0x1DF0, symBinAddr: 0x10001FB08, symSize: 0xA4 }
  - { offset: 0x1DB858, size: 0x8, addend: 0x0, symName: __ZN5hilti2rt11MissingDataD1Ev, symObjAddr: 0x1E94, symBinAddr: 0x10001FBAC, symSize: 0xA4 }
  - { offset: 0x1DBC90, size: 0x8, addend: 0x0, symName: __ZN5hilti2rt11MissingDataD0Ev, symObjAddr: 0x1F38, symBinAddr: 0x10001FC50, symSize: 0xAC }
  - { offset: 0x1DC0B3, size: 0x8, addend: 0x0, symName: __ZN5hilti2rt12NotSupportedD2Ev, symObjAddr: 0x1FE4, symBinAddr: 0x10001FCFC, symSize: 0xA4 }
  - { offset: 0x1DC4B5, size: 0x8, addend: 0x0, symName: __ZN5hilti2rt12NotSupportedD1Ev, symObjAddr: 0x2088, symBinAddr: 0x10001FDA0, symSize: 0xA4 }
  - { offset: 0x1DC8CF, size: 0x8, addend: 0x0, symName: __ZN5hilti2rt12NotSupportedD0Ev, symObjAddr: 0x212C, symBinAddr: 0x10001FE44, symSize: 0xAC }
  - { offset: 0x1DCCDC, size: 0x8, addend: 0x0, symName: __ZN5hilti2rt13NullReferenceD2Ev, symObjAddr: 0x21D8, symBinAddr: 0x10001FEF0, symSize: 0xA4 }
  - { offset: 0x1DD0DE, size: 0x8, addend: 0x0, symName: __ZN5hilti2rt13NullReferenceD1Ev, symObjAddr: 0x227C, symBinAddr: 0x10001FF94, symSize: 0xA4 }
  - { offset: 0x1DD4F8, size: 0x8, addend: 0x0, symName: __ZN5hilti2rt13NullReferenceD0Ev, symObjAddr: 0x2320, symBinAddr: 0x100020038, symSize: 0xAC }
  - { offset: 0x1DD905, size: 0x8, addend: 0x0, symName: __ZN5hilti2rt10OutOfRangeD2Ev, symObjAddr: 0x23CC, symBinAddr: 0x1000200E4, symSize: 0xA4 }
  - { offset: 0x1DDD07, size: 0x8, addend: 0x0, symName: __ZN5hilti2rt10OutOfRangeD1Ev, symObjAddr: 0x2470, symBinAddr: 0x100020188, symSize: 0xA4 }
  - { offset: 0x1DE121, size: 0x8, addend: 0x0, symName: __ZN5hilti2rt10OutOfRangeD0Ev, symObjAddr: 0x2514, symBinAddr: 0x10002022C, symSize: 0xAC }
  - { offset: 0x1DE528, size: 0x8, addend: 0x0, symName: __ZN5hilti2rt8OverflowD2Ev, symObjAddr: 0x25C0, symBinAddr: 0x1000202D8, symSize: 0xA4 }
  - { offset: 0x1DE92A, size: 0x8, addend: 0x0, symName: __ZN5hilti2rt8OverflowD1Ev, symObjAddr: 0x2664, symBinAddr: 0x10002037C, symSize: 0xA4 }
  - { offset: 0x1DED44, size: 0x8, addend: 0x0, symName: __ZN5hilti2rt8OverflowD0Ev, symObjAddr: 0x2708, symBinAddr: 0x100020420, symSize: 0xAC }
  - { offset: 0x1DF151, size: 0x8, addend: 0x0, symName: __ZN5hilti2rt12PatternErrorD2Ev, symObjAddr: 0x27B4, symBinAddr: 0x1000204CC, symSize: 0xA4 }
  - { offset: 0x1DF553, size: 0x8, addend: 0x0, symName: __ZN5hilti2rt12PatternErrorD1Ev, symObjAddr: 0x2858, symBinAddr: 0x100020570, symSize: 0xA4 }
  - { offset: 0x1DF96D, size: 0x8, addend: 0x0, symName: __ZN5hilti2rt12PatternErrorD0Ev, symObjAddr: 0x28FC, symBinAddr: 0x100020614, symSize: 0xAC }
  - { offset: 0x1DFD7A, size: 0x8, addend: 0x0, symName: __ZN5hilti2rt19UnhandledSwitchCaseD2Ev, symObjAddr: 0x29A8, symBinAddr: 0x1000206C0, symSize: 0xA4 }
  - { offset: 0x1E017C, size: 0x8, addend: 0x0, symName: __ZN5hilti2rt19UnhandledSwitchCaseD1Ev, symObjAddr: 0x2A4C, symBinAddr: 0x100020764, symSize: 0xA4 }
  - { offset: 0x1E0596, size: 0x8, addend: 0x0, symName: __ZN5hilti2rt19UnhandledSwitchCaseD0Ev, symObjAddr: 0x2AF0, symBinAddr: 0x100020808, symSize: 0xAC }
  - { offset: 0x1E09A3, size: 0x8, addend: 0x0, symName: __ZN5hilti2rt12UnicodeErrorD2Ev, symObjAddr: 0x2B9C, symBinAddr: 0x1000208B4, symSize: 0xA4 }
  - { offset: 0x1E0DA5, size: 0x8, addend: 0x0, symName: __ZN5hilti2rt12UnicodeErrorD1Ev, symObjAddr: 0x2C40, symBinAddr: 0x100020958, symSize: 0xA4 }
  - { offset: 0x1E11BF, size: 0x8, addend: 0x0, symName: __ZN5hilti2rt12UnicodeErrorD0Ev, symObjAddr: 0x2CE4, symBinAddr: 0x1000209FC, symSize: 0xAC }
  - { offset: 0x1E15CC, size: 0x8, addend: 0x0, symName: __ZN5hilti2rt13UnsetOptionalD2Ev, symObjAddr: 0x2D90, symBinAddr: 0x100020AA8, symSize: 0xA4 }
  - { offset: 0x1E19CE, size: 0x8, addend: 0x0, symName: __ZN5hilti2rt13UnsetOptionalD1Ev, symObjAddr: 0x2E34, symBinAddr: 0x100020B4C, symSize: 0xA4 }
  - { offset: 0x1E1DE8, size: 0x8, addend: 0x0, symName: __ZN5hilti2rt13UnsetOptionalD0Ev, symObjAddr: 0x2ED8, symBinAddr: 0x100020BF0, symSize: 0xAC }
  - { offset: 0x1E21F5, size: 0x8, addend: 0x0, symName: __ZN5hilti2rt16UnsetUnionMemberD2Ev, symObjAddr: 0x2F84, symBinAddr: 0x100020C9C, symSize: 0xA4 }
  - { offset: 0x1E25F7, size: 0x8, addend: 0x0, symName: __ZN5hilti2rt16UnsetUnionMemberD1Ev, symObjAddr: 0x3028, symBinAddr: 0x100020D40, symSize: 0xA4 }
  - { offset: 0x1E2A11, size: 0x8, addend: 0x0, symName: __ZN5hilti2rt16UnsetUnionMemberD0Ev, symObjAddr: 0x30CC, symBinAddr: 0x100020DE4, symSize: 0xAC }
  - { offset: 0x1E2E18, size: 0x8, addend: 0x0, symName: __ZN5hilti2rt17StackSizeExceededD2Ev, symObjAddr: 0x3178, symBinAddr: 0x100020E90, symSize: 0xA4 }
  - { offset: 0x1E321A, size: 0x8, addend: 0x0, symName: __ZN5hilti2rt17StackSizeExceededD1Ev, symObjAddr: 0x321C, symBinAddr: 0x100020F34, symSize: 0xA4 }
  - { offset: 0x1E3634, size: 0x8, addend: 0x0, symName: __ZN5hilti2rt17StackSizeExceededD0Ev, symObjAddr: 0x32C0, symBinAddr: 0x100020FD8, symSize: 0xAC }
  - { offset: 0x1E4EED, size: 0x8, addend: 0x0, symName: __ZN5hilti2rt9ExceptionC2ENS1_8InternalEPKcNSt3__117basic_string_viewIcNS5_11char_traitsIcEEEES9_S9_, symObjAddr: 0x336C, symBinAddr: 0x100021084, symSize: 0x4EC }
  - { offset: 0x1E72B8, size: 0x8, addend: 0x0, symName: __ZN5hilti2rt8ProfilerC2ENSt3__117basic_string_viewIcNS2_11char_traitsIcEEEENS2_8optionalIyEE, symObjAddr: 0x47C8, symBinAddr: 0x1000224D0, symSize: 0xEC }
  - { offset: 0x1E774F, size: 0x8, addend: 0x0, symName: __ZNSt3__112basic_stringIcNS_11char_traitsIcEENS_9allocatorIcEEEC1B8ne180100ILi0EEEPKc, symObjAddr: 0x3858, symBinAddr: 0x100021570, symSize: 0xB0 }
  - { offset: 0x1E7AF5, size: 0x8, addend: 0x0, symName: __ZL14printExceptionRKNSt3__112basic_stringIcNS_11char_traitsIcEENS_9allocatorIcEEEERKN5hilti2rt9ExceptionERNS_13basic_ostreamIcS2_EE, symObjAddr: 0x3908, symBinAddr: 0x100021620, symSize: 0x3D0 }
  - { offset: 0x1E7B07, size: 0x8, addend: 0x0, symName: __ZL14printExceptionRKNSt3__112basic_stringIcNS_11char_traitsIcEENS_9allocatorIcEEEERKN5hilti2rt9ExceptionERNS_13basic_ostreamIcS2_EE, symObjAddr: 0x3908, symBinAddr: 0x100021620, symSize: 0x3D0 }
  - { offset: 0x1E8F13, size: 0x8, addend: 0x0, symName: __ZN5hilti2rt9ExceptionC2ENS1_8InternalEPKcNSt3__117basic_string_viewIcNS5_11char_traitsIcEEEES9_S9_.cold.1, symObjAddr: 0x6598, symBinAddr: 0x100058610, symSize: 0x20 }
  - { offset: 0x1E9041, size: 0x8, addend: 0x0, symName: __ZNSt3__18optionalIN5hilti2rt9BacktraceEED1Ev, symObjAddr: 0x3CD8, symBinAddr: 0x1000219F0, symSize: 0x68 }
  - { offset: 0x1E963A, size: 0x8, addend: 0x0, symName: __ZN5hilti2rt9ExceptionC1ENS1_8InternalEPKcNSt3__117basic_string_viewIcNS5_11char_traitsIcEEEES9_S9_, symObjAddr: 0x3D40, symBinAddr: 0x100021A58, symSize: 0xC }
  - { offset: 0x1E970B, size: 0x8, addend: 0x0, symName: __ZN5hilti2rt9ExceptionC2ENS1_8InternalEPKcNSt3__117basic_string_viewIcNS5_11char_traitsIcEEEE, symObjAddr: 0x3D4C, symBinAddr: 0x100021A64, symSize: 0x1A8 }
  - { offset: 0x1E9C97, size: 0x8, addend: 0x0, symName: __ZN5hilti2rt9ExceptionC1ENS1_8InternalEPKcNSt3__117basic_string_viewIcNS5_11char_traitsIcEEEE, symObjAddr: 0x3EF4, symBinAddr: 0x100021C0C, symSize: 0x1A8 }
  - { offset: 0x1EA1FD, size: 0x8, addend: 0x0, symName: __ZN5hilti2rt9ExceptionC2ENS1_8InternalEPKcNSt3__117basic_string_viewIcNS5_11char_traitsIcEEEES9_, symObjAddr: 0x409C, symBinAddr: 0x100021DB4, symSize: 0xF0 }
  - { offset: 0x1EA5BF, size: 0x8, addend: 0x0, symName: __ZN5hilti2rt9ExceptionC1ENS1_8InternalEPKcNSt3__117basic_string_viewIcNS5_11char_traitsIcEEEES9_, symObjAddr: 0x418C, symBinAddr: 0x100021EA4, symSize: 0xF0 }
  - { offset: 0x1EAA8F, size: 0x8, addend: 0x0, symName: __ZN5hilti2rt9ExceptionC2Ev, symObjAddr: 0x427C, symBinAddr: 0x100021F94, symSize: 0x3C }
  - { offset: 0x1EAC62, size: 0x8, addend: 0x0, symName: __ZN5hilti2rt9ExceptionC1Ev, symObjAddr: 0x42B8, symBinAddr: 0x100021FD0, symSize: 0x3C }
  - { offset: 0x1EAE40, size: 0x8, addend: 0x0, symName: __ZN5hilti2rt9ExceptionD1Ev, symObjAddr: 0x42F4, symBinAddr: 0x10002200C, symSize: 0xA4 }
  - { offset: 0x1EB21E, size: 0x8, addend: 0x0, symName: __ZN5hilti2rt9ExceptionD0Ev, symObjAddr: 0x4398, symBinAddr: 0x1000220B0, symSize: 0xAC }
  - { offset: 0x1EB626, size: 0x8, addend: 0x0, symName: __ZN5hilti2rt10WouldBlockC2ENSt3__117basic_string_viewIcNS2_11char_traitsIcEEEES6_, symObjAddr: 0x4444, symBinAddr: 0x10002215C, symSize: 0xA4 }
  - { offset: 0x1EB93D, size: 0x8, addend: 0x0, symName: __ZN5hilti2rt10WouldBlockC1ENSt3__117basic_string_viewIcNS2_11char_traitsIcEEEES6_, symObjAddr: 0x44E8, symBinAddr: 0x100022200, symSize: 0xA4 }
  - { offset: 0x1EBC76, size: 0x8, addend: 0x0, symName: __ZN5hilti2rt9exception24DisableAbortOnExceptionsC2Ev, symObjAddr: 0x458C, symBinAddr: 0x1000222A4, symSize: 0x40 }
  - { offset: 0x1EBCDC, size: 0x8, addend: 0x0, symName: __ZN5hilti2rt9exception24DisableAbortOnExceptionsC1Ev, symObjAddr: 0x45CC, symBinAddr: 0x1000222E4, symSize: 0x40 }
  - { offset: 0x1EBD47, size: 0x8, addend: 0x0, symName: __ZN5hilti2rt9exception24DisableAbortOnExceptionsD2Ev, symObjAddr: 0x460C, symBinAddr: 0x100022324, symSize: 0x44 }
  - { offset: 0x1EBDA7, size: 0x8, addend: 0x0, symName: __ZN5hilti2rt9exception24DisableAbortOnExceptionsD1Ev, symObjAddr: 0x4660, symBinAddr: 0x100022368, symSize: 0x44 }
  - { offset: 0x1EE97B, size: 0x8, addend: 0x0, symName: __ZL19debug_stream_fibers, symObjAddr: 0x102670, symBinAddr: 0x1000BC5F0, symSize: 0x0 }
  - { offset: 0x202AB0, size: 0x8, addend: 0x0, symName: __ZN5hilti2rt6detail5Fiber12_initializedE, symObjAddr: 0x9540, symBinAddr: 0x1000BC288, symSize: 0x0 }
  - { offset: 0x203174, size: 0x8, addend: 0x0, symName: __ZN5hilti2rt6detaillsERNSt3__113basic_ostreamIcNS2_11char_traitsIcEEEERKNS1_5FiberE, symObjAddr: 0x2528, symBinAddr: 0x100024D78, symSize: 0x1AC }
  - { offset: 0x203F6A, size: 0x8, addend: 0x0, symName: __ZN5hilti2rt6detail5yieldEv, symObjAddr: 0x3904, symBinAddr: 0x100026150, symSize: 0xCC }
  - { offset: 0x204064, size: 0x8, addend: 0x0, symName: __ZN5hilti2rt6detail10trackStackEv, symObjAddr: 0x39D0, symBinAddr: 0x10002621C, symSize: 0x58 }
  - { offset: 0x2051E4, size: 0x8, addend: 0x0, symName: __ZN5hilti2rt6detail5Fiber13_total_fibersE, symObjAddr: 0x9548, symBinAddr: 0x1000BC290, symSize: 0x0 }
  - { offset: 0x2051F7, size: 0x8, addend: 0x0, symName: __ZN5hilti2rt6detail5Fiber15_current_fibersE, symObjAddr: 0x9550, symBinAddr: 0x1000BC298, symSize: 0x0 }
  - { offset: 0x20520A, size: 0x8, addend: 0x0, symName: __ZN5hilti2rt6detail5Fiber11_max_fibersE, symObjAddr: 0x9558, symBinAddr: 0x1000BC2A0, symSize: 0x0 }
  - { offset: 0x20521D, size: 0x8, addend: 0x0, symName: __ZN5hilti2rt6detail5Fiber14_cached_fibersE, symObjAddr: 0x9560, symBinAddr: 0x1000BC2A8, symSize: 0x0 }
  - { offset: 0x205236, size: 0x8, addend: 0x0, symName: __ZN5hilti2rt6detail5Fiber15_max_stack_sizeE, symObjAddr: 0x9568, symBinAddr: 0x1000BC2B0, symSize: 0x0 }
  - { offset: 0x207D4B, size: 0x8, addend: 0x0, symName: __ZN10tinyformat6detail15formatTruncatedIN5hilti2rt6detail5FiberEEEvRNSt3__113basic_ostreamIcNS6_11char_traitsIcEEEERKT_i, symObjAddr: 0x50B4, symBinAddr: 0x1000264E8, symSize: 0x200 }
  - { offset: 0x20892A, size: 0x8, addend: 0x0, symName: __ZN10tinyformat6detail15formatTruncatedImEEvRNSt3__113basic_ostreamIcNS2_11char_traitsIcEEEERKT_i, symObjAddr: 0x63F8, symBinAddr: 0x10002734C, symSize: 0x200 }
  - { offset: 0x208F0C, size: 0x8, addend: 0x0, symName: __ZN10tinyformat6detail15formatTruncatedIN5hilti2rt6detail11StackBufferEEEvRNSt3__113basic_ostreamIcNS6_11char_traitsIcEEEERKT_i, symObjAddr: 0x66F0, symBinAddr: 0x100027644, symSize: 0x270 }
  - { offset: 0x209E1F, size: 0x8, addend: 0x0, symName: __ZN10tinyformat6formatIJN5hilti2rt6detail5FiberEA15_cA33_cEEENSt3__112basic_stringIcNS7_11char_traitsIcEENS7_9allocatorIcEEEEPKcDpRKT_, symObjAddr: 0x53E4, symBinAddr: 0x100026818, symSize: 0x1EC }
  - { offset: 0x20A311, size: 0x8, addend: 0x0, symName: __ZN10tinyformat6formatIJN5hilti2rt6detail5FiberEA15_cA26_cEEENSt3__112basic_stringIcNS7_11char_traitsIcEENS7_9allocatorIcEEEEPKcDpRKT_, symObjAddr: 0x5668, symBinAddr: 0x100026A9C, symSize: 0x1EC }
  - { offset: 0x20A803, size: 0x8, addend: 0x0, symName: __ZN10tinyformat6formatIJN5hilti2rt6detail5FiberEA15_cA25_cEEENSt3__112basic_stringIcNS7_11char_traitsIcEENS7_9allocatorIcEEEEPKcDpRKT_, symObjAddr: 0x3FA8, symBinAddr: 0x1000262E0, symSize: 0x1EC }
  - { offset: 0x20ACF5, size: 0x8, addend: 0x0, symName: __ZN10tinyformat6formatIJPN5hilti2rt6detail5FiberEEEENSt3__112basic_stringIcNS6_11char_traitsIcEENS6_9allocatorIcEEEEPKcDpRKT_, symObjAddr: 0x7704, symBinAddr: 0x1000283C0, symSize: 0x1B8 }
  - { offset: 0x20B115, size: 0x8, addend: 0x0, symName: __ZN10tinyformat6formatIJN5hilti2rt6detail5FiberEPKcNSt3__112basic_stringIcNS7_11char_traitsIcEENS7_9allocatorIcEEEEEEESD_S6_DpRKT_, symObjAddr: 0x7190, symBinAddr: 0x100027E4C, symSize: 0x1EC }
  - { offset: 0x20B607, size: 0x8, addend: 0x0, symName: __ZN10tinyformat6formatIJPN5hilti2rt6detail5FiberES5_EEENSt3__112basic_stringIcNS6_11char_traitsIcEENS6_9allocatorIcEEEEPKcDpRKT_, symObjAddr: 0x58EC, symBinAddr: 0x100026D20, symSize: 0x1C0 }
  - { offset: 0x20BAAA, size: 0x8, addend: 0x0, symName: __ZN10tinyformat6formatIJN5hilti2rt6detail5FiberEA15_cNSt3__112basic_stringIcNS6_11char_traitsIcEENS6_9allocatorIcEEEEEEESC_PKcDpRKT_, symObjAddr: 0x5CD8, symBinAddr: 0x100026F0C, symSize: 0x1EC }
  - { offset: 0x20BF9C, size: 0x8, addend: 0x0, symName: __ZN10tinyformat6formatIJPKcmN5hilti2rt6detail11StackBufferEEEENSt3__112basic_stringIcNS7_11char_traitsIcEENS7_9allocatorIcEEEES2_DpRKT_, symObjAddr: 0x610C, symBinAddr: 0x1000270F8, symSize: 0x1EC }
  - { offset: 0x20C48E, size: 0x8, addend: 0x0, symName: __ZN10tinyformat6formatIJN5hilti2rt6detail11StackBufferEPvEEENSt3__112basic_stringIcNS6_11char_traitsIcEENS6_9allocatorIcEEEEPKcDpRKT_, symObjAddr: 0x6BD4, symBinAddr: 0x100027A90, symSize: 0x1D0 }
  - { offset: 0x20C931, size: 0x8, addend: 0x0, symName: __ZN10tinyformat6formatIJN5hilti2rt6detail5FiberES4_EEENSt3__112basic_stringIcNS5_11char_traitsIcEENS5_9allocatorIcEEEEPKcDpRKT_, symObjAddr: 0x6FD0, symBinAddr: 0x100027C8C, symSize: 0x1C0 }
  - { offset: 0x20CDD4, size: 0x8, addend: 0x0, symName: __ZN10tinyformat6formatIJN5hilti2rt6detail5FiberEEEENSt3__112basic_stringIcNS5_11char_traitsIcEENS5_9allocatorIcEEEEPKcDpRKT_, symObjAddr: 0x737C, symBinAddr: 0x100028038, symSize: 0x1B8 }
  - { offset: 0x20D1F4, size: 0x8, addend: 0x0, symName: __ZN10tinyformat6formatIJN5hilti2rt6detail5FiberEPvEEENSt3__112basic_stringIcNS6_11char_traitsIcEENS6_9allocatorIcEEEEPKcDpRKT_, symObjAddr: 0x7534, symBinAddr: 0x1000281F0, symSize: 0x1D0 }
  - { offset: 0x20D697, size: 0x8, addend: 0x0, symName: __ZN10tinyformat6formatIJNSt3__112basic_stringIcNS1_11char_traitsIcEENS1_9allocatorIcEEEEPKN5hilti2rt6detail5FiberEEEES7_PKcDpRKT_, symObjAddr: 0x78BC, symBinAddr: 0x100028578, symSize: 0x1D0 }
  - { offset: 0x20DB3A, size: 0x8, addend: 0x0, symName: __ZN10tinyformat6formatIJiEEENSt3__112basic_stringIcNS1_11char_traitsIcEENS1_9allocatorIcEEEEPKcDpRKT_, symObjAddr: 0x7CB8, symBinAddr: 0x100028774, symSize: 0x1B8 }
  - { offset: 0x20DF5A, size: 0x8, addend: 0x0, symName: __ZN10tinyformat6formatIJN5hilti2rt6detail5FiberEA7_cNSt3__112basic_stringIcNS6_11char_traitsIcEENS6_9allocatorIcEEEEEEESC_PKcDpRKT_, symObjAddr: 0x80D8, symBinAddr: 0x10002892C, symSize: 0x1EC }
  - { offset: 0x20E44C, size: 0x8, addend: 0x0, symName: __ZN10tinyformat6formatIJN5hilti2rt6detail5FiberEA8_cNSt3__112basic_stringIcNS6_11char_traitsIcEENS6_9allocatorIcEEEEEEESC_PKcDpRKT_, symObjAddr: 0x835C, symBinAddr: 0x100028BB0, symSize: 0x1EC }
  - { offset: 0x20F038, size: 0x8, addend: 0x0, symName: __ZN10tinyformat11formatValueIN5hilti2rt6detail11StackBufferEEEvRNSt3__113basic_ostreamIcNS5_11char_traitsIcEEEEPKcSC_iRKT_, symObjAddr: 0x6604, symBinAddr: 0x100027558, symSize: 0xEC }
  - { offset: 0x20F475, size: 0x8, addend: 0x0, symName: __ZN10tinyformat6formatIJPcS1_mEEENSt3__112basic_stringIcNS2_11char_traitsIcEENS2_9allocatorIcEEEEPKcDpRKT_, symObjAddr: 0x6960, symBinAddr: 0x1000278B4, symSize: 0x1DC }
  - { offset: 0x210856, size: 0x8, addend: 0x0, symName: ___fiber_run_trampoline, symObjAddr: 0xB0, symBinAddr: 0x100022B04, symSize: 0x844 }
  - { offset: 0x2118EC, size: 0x8, addend: 0x0, symName: ___fiber_run_trampoline, symObjAddr: 0xB0, symBinAddr: 0x100022B04, symSize: 0x844 }
  - { offset: 0x213E7D, size: 0x8, addend: 0x0, symName: __ZN5hilti2rt6detail5Fiber6_yieldEPKc, symObjAddr: 0xAC8, symBinAddr: 0x10002334C, symSize: 0x290 }
  - { offset: 0x214887, size: 0x8, addend: 0x0, symName: __ZN5hilti2rt6detail5Fiber18_finishSwitchFiberEPKc, symObjAddr: 0x8F4, symBinAddr: 0x100023348, symSize: 0x4 }
  - { offset: 0x214B3C, size: 0x8, addend: 0x0, symName: __ZN5hilti2rt6detail5Fiber14_executeSwitchEPKcPS2_S5_, symObjAddr: 0x16EC, symBinAddr: 0x100023F70, symSize: 0x364 }
  - { offset: 0x215965, size: 0x8, addend: 0x0, symName: ___fiber_switch_trampoline, symObjAddr: 0xD58, symBinAddr: 0x1000235DC, symSize: 0x2E0 }
  - { offset: 0x2165A9, size: 0x8, addend: 0x0, symName: __ZN5hilti2rt6detail11StackBuffer4saveEv, symObjAddr: 0x1038, symBinAddr: 0x1000238BC, symSize: 0x498 }
  - { offset: 0x217938, size: 0x8, addend: 0x0, symName: __ZNK5hilti2rt6detail11StackBuffer7restoreEv, symObjAddr: 0x14D0, symBinAddr: 0x100023D54, symSize: 0x21C }
  - { offset: 0x2185F4, size: 0x8, addend: 0x0, symName: __ZN5hilti2rt12RuntimeErrorC1ENSt3__117basic_string_viewIcNS2_11char_traitsIcEEEE, symObjAddr: 0x1CB4, symBinAddr: 0x100024504, symSize: 0x38 }
  - { offset: 0x218900, size: 0x8, addend: 0x0, symName: __ZN5hilti2rt6detail12FiberContextC2Ev, symObjAddr: 0x1A50, symBinAddr: 0x1000242D4, symSize: 0x224 }
  - { offset: 0x2191AA, size: 0x8, addend: 0x0, symName: __ZN5hilti2rt6detail5FiberC2ENS2_4TypeE, symObjAddr: 0x1E18, symBinAddr: 0x100024668, symSize: 0x214 }
  - { offset: 0x219A34, size: 0x8, addend: 0x0, symName: __ZN5hilti2rt6detail5FiberD2Ev, symObjAddr: 0x2058, symBinAddr: 0x1000248A8, symSize: 0xB8 }
  - { offset: 0x219E07, size: 0x8, addend: 0x0, symName: __ZNSt3__16vectorINS_10unique_ptrIN5hilti2rt6detail5FiberENS_14default_deleteIS5_EEEENS_9allocatorIS8_EEED1B8ne180100Ev, symObjAddr: 0x1CEC, symBinAddr: 0x10002453C, symSize: 0x70 }
  - { offset: 0x21A0C5, size: 0x8, addend: 0x0, symName: __ZL18fiber_bottom_abortP5FiberPv, symObjAddr: 0x1CA8, symBinAddr: 0x1000244F8, symSize: 0xC }
  - { offset: 0x21A0F8, size: 0x8, addend: 0x0, symName: __ZN5hilti2rt12RuntimeErrorC1ENSt3__117basic_string_viewIcNS2_11char_traitsIcEEEE, symObjAddr: 0x1CB4, symBinAddr: 0x100024504, symSize: 0x38 }
  - { offset: 0x21A250, size: 0x8, addend: 0x0, symName: __ZN5hilti2rt6detail12FiberContextC1Ev, symObjAddr: 0x1D5C, symBinAddr: 0x1000245AC, symSize: 0x4 }
  - { offset: 0x21A27E, size: 0x8, addend: 0x0, symName: __ZN5hilti2rt6detail12FiberContextC1Ev, symObjAddr: 0x1D5C, symBinAddr: 0x1000245AC, symSize: 0x4 }
  - { offset: 0x21A2AB, size: 0x8, addend: 0x0, symName: __ZN5hilti2rt6detail12FiberContextD2Ev, symObjAddr: 0x1D60, symBinAddr: 0x1000245B0, symSize: 0xB4 }
  - { offset: 0x21A732, size: 0x8, addend: 0x0, symName: __ZN5hilti2rt6detail12FiberContextD1Ev, symObjAddr: 0x1E14, symBinAddr: 0x100024664, symSize: 0x4 }
  - { offset: 0x21A760, size: 0x8, addend: 0x0, symName: __ZN5hilti2rt6detail12FiberContextD1Ev, symObjAddr: 0x1E14, symBinAddr: 0x100024664, symSize: 0x4 }
  - { offset: 0x21AB30, size: 0x8, addend: 0x0, symName: __ZN5hilti2rt6detail11StackBufferD1Ev, symObjAddr: 0x202C, symBinAddr: 0x10002487C, symSize: 0x28 }
  - { offset: 0x21AB7C, size: 0x8, addend: 0x0, symName: __ZN5hilti2rt6detail5FiberC1ENS2_4TypeE, symObjAddr: 0x2054, symBinAddr: 0x1000248A4, symSize: 0x4 }
  - { offset: 0x21ABA6, size: 0x8, addend: 0x0, symName: __ZN5hilti2rt6detail5FiberC1ENS2_4TypeE, symObjAddr: 0x2054, symBinAddr: 0x1000248A4, symSize: 0x4 }
  - { offset: 0x21ABC0, size: 0x8, addend: 0x0, symName: __ZN5hilti2rt6detail5FiberD1Ev, symObjAddr: 0x2110, symBinAddr: 0x100024960, symSize: 0x4 }
  - { offset: 0x21ABE3, size: 0x8, addend: 0x0, symName: __ZN5hilti2rt6detail5FiberD1Ev, symObjAddr: 0x2110, symBinAddr: 0x100024960, symSize: 0x4 }
  - { offset: 0x21ABF6, size: 0x8, addend: 0x0, symName: __ZN5hilti2rt6detail11StackBufferD2Ev, symObjAddr: 0x2114, symBinAddr: 0x100024964, symSize: 0x28 }
  - { offset: 0x21AC25, size: 0x8, addend: 0x0, symName: __ZNK5hilti2rt6detail11StackBuffer12activeRegionEv, symObjAddr: 0x213C, symBinAddr: 0x10002498C, symSize: 0x18 }
  - { offset: 0x21AC76, size: 0x8, addend: 0x0, symName: __ZNK5hilti2rt6detail11StackBuffer15allocatedRegionEv, symObjAddr: 0x2154, symBinAddr: 0x1000249A4, symSize: 0x14 }
  - { offset: 0x21ACB0, size: 0x8, addend: 0x0, symName: __ZNK5hilti2rt6detail11StackBuffer17liveRemainingSizeEv, symObjAddr: 0x2168, symBinAddr: 0x1000249B8, symSize: 0x1C }
  - { offset: 0x21ACF8, size: 0x8, addend: 0x0, symName: __ZNK5hilti2rt6detail11StackBuffer10activeSizeEv, symObjAddr: 0x2184, symBinAddr: 0x1000249D4, symSize: 0x1C }
  - { offset: 0x21AD4E, size: 0x8, addend: 0x0, symName: __ZN5hilti2rt6detail5Fiber17_startSwitchFiberEPKcPS2_, symObjAddr: 0x21A0, symBinAddr: 0x1000249F0, symSize: 0x4 }
  - { offset: 0x21AD84, size: 0x8, addend: 0x0, symName: __ZN5hilti2rt6detail5Fiber9_activateEPKc, symObjAddr: 0x21A4, symBinAddr: 0x1000249F4, symSize: 0x2AC }
  - { offset: 0x21B7F9, size: 0x8, addend: 0x0, symName: __ZNK5hilti2rt6detail5Fiber3tagEv, symObjAddr: 0x2450, symBinAddr: 0x100024CA0, symSize: 0xD8 }
  - { offset: 0x21C03D, size: 0x8, addend: 0x0, symName: __ZN5hilti2rt6detaillsERNSt3__113basic_ostreamIcNS2_11char_traitsIcEEEERKNS1_5FiberE, symObjAddr: 0x2528, symBinAddr: 0x100024D78, symSize: 0x1AC }
  - { offset: 0x21C06D, size: 0x8, addend: 0x0, symName: __ZN5hilti2rt6detail5Fiber3runEv, symObjAddr: 0x26D4, symBinAddr: 0x100024F24, symSize: 0xCC }
  - { offset: 0x21C37C, size: 0x8, addend: 0x0, symName: __ZN5hilti2rt6detail5Fiber5yieldEv, symObjAddr: 0x27A0, symBinAddr: 0x100024FF0, symSize: 0x68 }
  - { offset: 0x21C408, size: 0x8, addend: 0x0, symName: __ZN5hilti2rt6detail5Fiber6resumeEv, symObjAddr: 0x280C, symBinAddr: 0x100025058, symSize: 0x4 }
  - { offset: 0x21C42B, size: 0x8, addend: 0x0, symName: __ZN5hilti2rt6detail5Fiber6resumeEv, symObjAddr: 0x280C, symBinAddr: 0x100025058, symSize: 0x4 }
  - { offset: 0x21C43E, size: 0x8, addend: 0x0, symName: __ZN5hilti2rt6detail5Fiber5abortEv, symObjAddr: 0x2810, symBinAddr: 0x10002505C, symSize: 0x40 }
  - { offset: 0x21C74B, size: 0x8, addend: 0x0, symName: __ZN5hilti2rt6detail5Fiber6createEv, symObjAddr: 0x2850, symBinAddr: 0x10002509C, symSize: 0x298 }
  - { offset: 0x21D558, size: 0x8, addend: 0x0, symName: __ZN5hilti2rt6detail5Fiber7destroyENSt3__110unique_ptrIS2_NS3_14default_deleteIS2_EEEE, symObjAddr: 0x2AE8, symBinAddr: 0x100025334, symSize: 0x3FC }
  - { offset: 0x21E5CF, size: 0x8, addend: 0x0, symName: __ZNSt3__16vectorINS_10unique_ptrIN5hilti2rt6detail5FiberENS_14default_deleteIS5_EEEENS_9allocatorIS8_EEE21__push_back_slow_pathIS8_EEPS8_OT_, symObjAddr: 0x85E0, symBinAddr: 0x100028E34, symSize: 0x1BC }
  - { offset: 0x21EC62, size: 0x8, addend: 0x0, symName: __ZN5hilti2rt6detail5Fiber10primeCacheEv, symObjAddr: 0x2EE4, symBinAddr: 0x100025730, symSize: 0x268 }
  - { offset: 0x21FD49, size: 0x8, addend: 0x0, symName: __ZNSt3__16vectorINS_10unique_ptrIN5hilti2rt6detail5FiberENS_14default_deleteIS5_EEEENS_9allocatorIS8_EEE7reserveEm, symObjAddr: 0x314C, symBinAddr: 0x100025998, symSize: 0x188 }
  - { offset: 0x2201B8, size: 0x8, addend: 0x0, symName: __ZN5hilti2rt6detail5Fiber5resetEv, symObjAddr: 0x32D4, symBinAddr: 0x100025B20, symSize: 0x98 }
  - { offset: 0x22078D, size: 0x8, addend: 0x0, symName: __ZN5hilti2rt6detail5Fiber5resetEv, symObjAddr: 0x32D4, symBinAddr: 0x100025B20, symSize: 0x98 }
  - { offset: 0x220978, size: 0x8, addend: 0x0, symName: __ZN5hilti2rt9Resumable3runEv, symObjAddr: 0x336C, symBinAddr: 0x100025BB8, symSize: 0x64 }
  - { offset: 0x220ABA, size: 0x8, addend: 0x0, symName: __ZNK5hilti2rt9Resumable10checkFiberEPKc, symObjAddr: 0x33D0, symBinAddr: 0x100025C1C, symSize: 0x104 }
  - { offset: 0x220DA1, size: 0x8, addend: 0x0, symName: __ZN5hilti2rt9Resumable7yieldedEv, symObjAddr: 0x34D4, symBinAddr: 0x100025D20, symSize: 0x2F8 }
  - { offset: 0x221D09, size: 0x8, addend: 0x0, symName: __ZNSt3__110unique_ptrIN5hilti2rt6detail5FiberENS_14default_deleteIS4_EEEaSB8ne180100EDn, symObjAddr: 0x38D0, symBinAddr: 0x10002611C, symSize: 0x34 }
  - { offset: 0x221DC5, size: 0x8, addend: 0x0, symName: __ZN5hilti2rt9Resumable6resumeEv, symObjAddr: 0x37CC, symBinAddr: 0x100026018, symSize: 0x64 }
  - { offset: 0x221F24, size: 0x8, addend: 0x0, symName: __ZN5hilti2rt9Resumable5abortEv, symObjAddr: 0x3830, symBinAddr: 0x10002607C, symSize: 0xA0 }
  - { offset: 0x22215F, size: 0x8, addend: 0x0, symName: __ZN5hilti2rt6detail5Fiber10statisticsEv, symObjAddr: 0x3A28, symBinAddr: 0x100026274, symSize: 0x58 }
  - { offset: 0x2221A2, size: 0x8, addend: 0x0, symName: __ZN14AbortExceptionD0Ev, symObjAddr: 0x3A80, symBinAddr: 0x1000262CC, symSize: 0x14 }
  - { offset: 0x222C3D, size: 0x8, addend: 0x0, symName: __ZN10tinyformat6detail9FormatArg10formatImplIN5hilti2rt6detail5FiberEEEvRNSt3__113basic_ostreamIcNS7_11char_traitsIcEEEEPKcSE_iPKv, symObjAddr: 0x5098, symBinAddr: 0x1000264CC, symSize: 0x14 }
  - { offset: 0x222D05, size: 0x8, addend: 0x0, symName: __ZN10tinyformat6detail9FormatArg9toIntImplIN5hilti2rt6detail5FiberEEEiPKv, symObjAddr: 0x50AC, symBinAddr: 0x1000264E0, symSize: 0x8 }
  - { offset: 0x222D67, size: 0x8, addend: 0x0, symName: __ZN10tinyformat6detail9FormatArg10formatImplIA15_cEEvRNSt3__113basic_ostreamIcNS4_11char_traitsIcEEEEPKcSB_iPKv, symObjAddr: 0x52B4, symBinAddr: 0x1000266E8, symSize: 0x90 }
  - { offset: 0x222F07, size: 0x8, addend: 0x0, symName: __ZN10tinyformat6detail9FormatArg9toIntImplIA15_cEEiPKv, symObjAddr: 0x5344, symBinAddr: 0x100026778, symSize: 0x8 }
  - { offset: 0x222F53, size: 0x8, addend: 0x0, symName: __ZN10tinyformat6detail9FormatArg10formatImplIA25_cEEvRNSt3__113basic_ostreamIcNS4_11char_traitsIcEEEEPKcSB_iPKv, symObjAddr: 0x534C, symBinAddr: 0x100026780, symSize: 0x90 }
  - { offset: 0x2230F3, size: 0x8, addend: 0x0, symName: __ZN10tinyformat6detail9FormatArg9toIntImplIA25_cEEiPKv, symObjAddr: 0x53DC, symBinAddr: 0x100026810, symSize: 0x8 }
  - { offset: 0x223243, size: 0x8, addend: 0x0, symName: __ZN10tinyformat6detail9FormatArg10formatImplIA33_cEEvRNSt3__113basic_ostreamIcNS4_11char_traitsIcEEEEPKcSB_iPKv, symObjAddr: 0x55D0, symBinAddr: 0x100026A04, symSize: 0x90 }
  - { offset: 0x2233E3, size: 0x8, addend: 0x0, symName: __ZN10tinyformat6detail9FormatArg9toIntImplIA33_cEEiPKv, symObjAddr: 0x5660, symBinAddr: 0x100026A94, symSize: 0x8 }
  - { offset: 0x223533, size: 0x8, addend: 0x0, symName: __ZN10tinyformat6detail9FormatArg10formatImplIA26_cEEvRNSt3__113basic_ostreamIcNS4_11char_traitsIcEEEEPKcSB_iPKv, symObjAddr: 0x5854, symBinAddr: 0x100026C88, symSize: 0x90 }
  - { offset: 0x2236D3, size: 0x8, addend: 0x0, symName: __ZN10tinyformat6detail9FormatArg9toIntImplIA26_cEEiPKv, symObjAddr: 0x58E4, symBinAddr: 0x100026D18, symSize: 0x8 }
  - { offset: 0x223809, size: 0x8, addend: 0x0, symName: __ZN10tinyformat6detail9FormatArg10formatImplIPN5hilti2rt6detail5FiberEEEvRNSt3__113basic_ostreamIcNS8_11char_traitsIcEEEEPKcSF_iPKv, symObjAddr: 0x5AAC, symBinAddr: 0x100026EE0, symSize: 0x24 }
  - { offset: 0x22386D, size: 0x8, addend: 0x0, symName: __ZN10tinyformat6detail9FormatArg10formatImplIPN5hilti2rt6detail5FiberEEEvRNSt3__113basic_ostreamIcNS8_11char_traitsIcEEEEPKcSF_iPKv, symObjAddr: 0x5AAC, symBinAddr: 0x100026EE0, symSize: 0x24 }
  - { offset: 0x2238CB, size: 0x8, addend: 0x0, symName: __ZN10tinyformat6detail9FormatArg9toIntImplIPN5hilti2rt6detail5FiberEEEiPKv, symObjAddr: 0x5AD0, symBinAddr: 0x100026F04, symSize: 0x8 }
  - { offset: 0x223BDB, size: 0x8, addend: 0x0, symName: __ZN10tinyformat6detail9FormatArg10formatImplImEEvRNSt3__113basic_ostreamIcNS3_11char_traitsIcEEEEPKcSA_iPKv, symObjAddr: 0x6390, symBinAddr: 0x1000272E4, symSize: 0x60 }
  - { offset: 0x223CEF, size: 0x8, addend: 0x0, symName: __ZN10tinyformat6detail9FormatArg9toIntImplImEEiPKv, symObjAddr: 0x63F0, symBinAddr: 0x100027344, symSize: 0x8 }
  - { offset: 0x223D16, size: 0x8, addend: 0x0, symName: __ZN10tinyformat6detail9FormatArg9toIntImplImEEiPKv, symObjAddr: 0x63F0, symBinAddr: 0x100027344, symSize: 0x8 }
  - { offset: 0x223D3A, size: 0x8, addend: 0x0, symName: __ZN10tinyformat6detail9FormatArg10formatImplIN5hilti2rt6detail11StackBufferEEEvRNSt3__113basic_ostreamIcNS7_11char_traitsIcEEEEPKcSE_iPKv, symObjAddr: 0x65F8, symBinAddr: 0x10002754C, symSize: 0x4 }
  - { offset: 0x223D9D, size: 0x8, addend: 0x0, symName: __ZN10tinyformat6detail9FormatArg10formatImplIN5hilti2rt6detail11StackBufferEEEvRNSt3__113basic_ostreamIcNS7_11char_traitsIcEEEEPKcSE_iPKv, symObjAddr: 0x65F8, symBinAddr: 0x10002754C, symSize: 0x4 }
  - { offset: 0x223DD5, size: 0x8, addend: 0x0, symName: __ZN10tinyformat6detail9FormatArg9toIntImplIN5hilti2rt6detail11StackBufferEEEiPKv, symObjAddr: 0x65FC, symBinAddr: 0x100027550, symSize: 0x8 }
  - { offset: 0x223FEF, size: 0x8, addend: 0x0, symName: __ZN10tinyformat6detail9FormatArg10formatImplIPvEEvRNSt3__113basic_ostreamIcNS4_11char_traitsIcEEEEPKcSB_iPKv, symObjAddr: 0x6DA4, symBinAddr: 0x100027C60, symSize: 0x24 }
  - { offset: 0x224053, size: 0x8, addend: 0x0, symName: __ZN10tinyformat6detail9FormatArg10formatImplIPvEEvRNSt3__113basic_ostreamIcNS4_11char_traitsIcEEEEPKcSB_iPKv, symObjAddr: 0x6DA4, symBinAddr: 0x100027C60, symSize: 0x24 }
  - { offset: 0x2240B1, size: 0x8, addend: 0x0, symName: __ZN10tinyformat6detail9FormatArg9toIntImplIPvEEiPKv, symObjAddr: 0x6DC8, symBinAddr: 0x100027C84, symSize: 0x8 }
  - { offset: 0x224439, size: 0x8, addend: 0x0, symName: __ZN10tinyformat6detail9FormatArg10formatImplIPKN5hilti2rt6detail5FiberEEEvRNSt3__113basic_ostreamIcNS9_11char_traitsIcEEEEPKcSG_iPKv, symObjAddr: 0x7A8C, symBinAddr: 0x100028748, symSize: 0x24 }
  - { offset: 0x22449D, size: 0x8, addend: 0x0, symName: __ZN10tinyformat6detail9FormatArg10formatImplIPKN5hilti2rt6detail5FiberEEEvRNSt3__113basic_ostreamIcNS9_11char_traitsIcEEEEPKcSG_iPKv, symObjAddr: 0x7A8C, symBinAddr: 0x100028748, symSize: 0x24 }
  - { offset: 0x2244FB, size: 0x8, addend: 0x0, symName: __ZN10tinyformat6detail9FormatArg9toIntImplIPKN5hilti2rt6detail5FiberEEEiPKv, symObjAddr: 0x7AB0, symBinAddr: 0x10002876C, symSize: 0x8 }
  - { offset: 0x22470B, size: 0x8, addend: 0x0, symName: __ZN10tinyformat6detail9FormatArg10formatImplIA7_cEEvRNSt3__113basic_ostreamIcNS4_11char_traitsIcEEEEPKcSB_iPKv, symObjAddr: 0x82C4, symBinAddr: 0x100028B18, symSize: 0x90 }
  - { offset: 0x2248AB, size: 0x8, addend: 0x0, symName: __ZN10tinyformat6detail9FormatArg9toIntImplIA7_cEEiPKv, symObjAddr: 0x8354, symBinAddr: 0x100028BA8, symSize: 0x8 }
  - { offset: 0x2249FB, size: 0x8, addend: 0x0, symName: __ZN10tinyformat6detail9FormatArg10formatImplIA8_cEEvRNSt3__113basic_ostreamIcNS4_11char_traitsIcEEEEPKcSB_iPKv, symObjAddr: 0x8548, symBinAddr: 0x100028D9C, symSize: 0x90 }
  - { offset: 0x224B9B, size: 0x8, addend: 0x0, symName: __ZN10tinyformat6detail9FormatArg9toIntImplIA8_cEEiPKv, symObjAddr: 0x85D8, symBinAddr: 0x100028E2C, symSize: 0x8 }
  - { offset: 0x2269FE, size: 0x8, addend: 0x0, symName: __ZN5hilti2rt6detail14__global_stateE, symObjAddr: 0x931F0, symBinAddr: 0x1000BC750, symSize: 0x0 }
  - { offset: 0x226C35, size: 0x8, addend: 0x0, symName: __ZN5hilti2rt6detail17createGlobalStateEv, symObjAddr: 0x0, symBinAddr: 0x10002902C, symSize: 0x94 }
  - { offset: 0x23BE40, size: 0x8, addend: 0x0, symName: __ZN5hilti2rt6detail11GlobalStateD2Ev, symObjAddr: 0x94, symBinAddr: 0x1000290C0, symSize: 0x2CC }
  - { offset: 0x23D2C1, size: 0x8, addend: 0x0, symName: __ZNSt3__16__treeINS_12__value_typeINS_17basic_string_viewIcNS_11char_traitsIcEEEE7SafeIntIyN5hilti2rt7integer6detail16SafeIntExceptionEEEENS_19__map_value_compareIS5_SD_NS_4lessIS5_EELb1EEENS_9allocatorISD_EEE7destroyEPNS_11__tree_nodeISD_PvEE, symObjAddr: 0x374, symBinAddr: 0x100029390, symSize: 0x40 }
  - { offset: 0x23D3F9, size: 0x8, addend: 0x0, symName: __ZN5hilti2rt6detail11GlobalStateD1Ev, symObjAddr: 0x370, symBinAddr: 0x10002938C, symSize: 0x4 }
  - { offset: 0x23D427, size: 0x8, addend: 0x0, symName: __ZN5hilti2rt6detail11GlobalStateD1Ev, symObjAddr: 0x370, symBinAddr: 0x10002938C, symSize: 0x4 }
  - { offset: 0x23F50A, size: 0x8, addend: 0x0, symName: __ZN5hilti2rt6detail14registerModuleENS1_11HiltiModuleE, symObjAddr: 0xE20, symBinAddr: 0x10002A0F8, symSize: 0x410 }
  - { offset: 0x2408BA, size: 0x8, addend: 0x0, symName: __ZN5hilti2rt4initEv, symObjAddr: 0x0, symBinAddr: 0x1000293D0, symSize: 0x7EC }
  - { offset: 0x243053, size: 0x8, addend: 0x0, symName: __ZN5hilti2rt4doneEv, symObjAddr: 0xAC8, symBinAddr: 0x100029DA0, symSize: 0x330 }
  - { offset: 0x243BDD, size: 0x8, addend: 0x0, symName: __ZN5hilti2rt13isInitializedEv, symObjAddr: 0xDF8, symBinAddr: 0x10002A0D0, symSize: 0x28 }
  - { offset: 0x243BFB, size: 0x8, addend: 0x0, symName: __ZN5hilti2rt21executeManualPreInitsEv, symObjAddr: 0x1420, symBinAddr: 0x10002A6F8, symSize: 0x9C }
  - { offset: 0x256D75, size: 0x8, addend: 0x0, symName: __ZNSt3__111make_uniqueB8ne180100IN5hilti2rt6detail11DebugLoggerEJRA12_KcEEENS_11__unique_ifIT_E15__unique_singleEDpOT0_, symObjAddr: 0x854, symBinAddr: 0x100029C24, symSize: 0x148 }
  - { offset: 0x25BBA8, size: 0x8, addend: 0x0, symName: __ZN10tinyformat6detail20spaceFillIfNotFiniteERNSt3__113basic_ostreamIcNS1_11char_traitsIcEEEEd, symObjAddr: 0x2F2C, symBinAddr: 0x10002AA54, symSize: 0x144 }
  - { offset: 0x25BD31, size: 0x8, addend: 0x0, symName: __ZN10tinyformat6detail15formatTruncatedIdEEvRNSt3__113basic_ostreamIcNS2_11char_traitsIcEEEERKT_i, symObjAddr: 0x3070, symBinAddr: 0x10002AB98, symSize: 0x200 }
  - { offset: 0x25C5C7, size: 0x8, addend: 0x0, symName: __ZN10tinyformat6formatIJddyEEENSt3__112basic_stringIcNS1_11char_traitsIcEENS1_9allocatorIcEEEEPKcDpRKT_, symObjAddr: 0x2C9C, symBinAddr: 0x10002A7C4, symSize: 0x1DC }
  - { offset: 0x25E8A7, size: 0x8, addend: 0x0, symName: __ZNSt3__110unique_ptrIN5hilti2rt6detail11DebugLoggerENS_14default_deleteIS4_EEED1B8ne180100Ev, symObjAddr: 0x7EC, symBinAddr: 0x100029BBC, symSize: 0x68 }
  - { offset: 0x25EBF9, size: 0x8, addend: 0x0, symName: __ZNSt3__110unique_ptrIN5hilti2rt7ContextENS_14default_deleteIS3_EEED1B8ne180100Ev, symObjAddr: 0x99C, symBinAddr: 0x100029D6C, symSize: 0x34 }
  - { offset: 0x25FAA9, size: 0x8, addend: 0x0, symName: __ZN5hilti2rt6detail21RegisterManualPreInitC2EPFvvE, symObjAddr: 0x1230, symBinAddr: 0x10002A508, symSize: 0x1EC }
  - { offset: 0x25FE63, size: 0x8, addend: 0x0, symName: __ZN5hilti2rt6detail21RegisterManualPreInitC1EPFvvE, symObjAddr: 0x141C, symBinAddr: 0x10002A6F4, symSize: 0x4 }
  - { offset: 0x25FE90, size: 0x8, addend: 0x0, symName: __ZN5hilti2rt6detail21RegisterManualPreInitC1EPFvvE, symObjAddr: 0x141C, symBinAddr: 0x10002A6F4, symSize: 0x4 }
  - { offset: 0x25FECC, size: 0x8, addend: 0x0, symName: __ZN5hilti2rt6detail21RegisterManualPreInitC1EPFvvE, symObjAddr: 0x141C, symBinAddr: 0x10002A6F4, symSize: 0x4 }
  - { offset: 0x260086, size: 0x8, addend: 0x0, symName: __ZNSt3__16vectorIPFvvENS_9allocatorIS2_EEED1B8ne180100Ev, symObjAddr: 0x1608, symBinAddr: 0x10002A794, symSize: 0x30 }
  - { offset: 0x260D2E, size: 0x8, addend: 0x0, symName: __ZN10tinyformat6detail9FormatArg10formatImplIdEEvRNSt3__113basic_ostreamIcNS3_11char_traitsIcEEEEPKcSA_iPKv, symObjAddr: 0x2E78, symBinAddr: 0x10002A9A0, symSize: 0xA8 }
  - { offset: 0x260E6F, size: 0x8, addend: 0x0, symName: __ZN10tinyformat6detail9FormatArg9toIntImplIdEEiPKv, symObjAddr: 0x2F20, symBinAddr: 0x10002AA48, symSize: 0xC }
  - { offset: 0x260E96, size: 0x8, addend: 0x0, symName: __ZN10tinyformat6detail9FormatArg9toIntImplIdEEiPKv, symObjAddr: 0x2F20, symBinAddr: 0x10002AA48, symSize: 0xC }
  - { offset: 0x266391, size: 0x8, addend: 0x0, symName: __ZNSt3__1lsB8ne180100INS_11char_traitsIcEEEERNS_13basic_ostreamIcT_EES6_c, symObjAddr: 0x80, symBinAddr: 0x10002AE18, symSize: 0x28 }
  - { offset: 0x268FE0, size: 0x8, addend: 0x0, symName: __ZN5hilti2rt13internalErrorENSt3__117basic_string_viewIcNS1_11char_traitsIcEEEE, symObjAddr: 0x0, symBinAddr: 0x10002AD98, symSize: 0x80 }
  - { offset: 0x26922A, size: 0x8, addend: 0x0, symName: __ZN5hilti2rt10fatalErrorENSt3__117basic_string_viewIcNS1_11char_traitsIcEEEE, symObjAddr: 0xA8, symBinAddr: 0x10002AE40, symSize: 0x84 }
  - { offset: 0x26946F, size: 0x8, addend: 0x0, symName: __ZN5hilti2rt7warningENSt3__117basic_string_viewIcNS1_11char_traitsIcEEEE, symObjAddr: 0x12C, symBinAddr: 0x10002AEC4, symSize: 0xB0 }
  - { offset: 0x26C302, size: 0x8, addend: 0x0, symName: __ZN5hilti2rt8profiler6reportEv, symObjAddr: 0x520, symBinAddr: 0x10002B494, symSize: 0x3A0 }
  - { offset: 0x26D972, size: 0x8, addend: 0x0, symName: __ZN5hilti2rt8profiler6detail4initEv, symObjAddr: 0x234, symBinAddr: 0x10002B1A8, symSize: 0x1A8 }
  - { offset: 0x26E2F4, size: 0x8, addend: 0x0, symName: __ZN5hilti2rt8profiler6detail4doneEv, symObjAddr: 0x3DC, symBinAddr: 0x10002B350, symSize: 0x144 }
  - { offset: 0x26E903, size: 0x8, addend: 0x0, symName: __ZN5hilti2rt8profiler3getERKNSt3__112basic_stringIcNS2_11char_traitsIcEENS2_9allocatorIcEEEE, symObjAddr: 0x8C0, symBinAddr: 0x10002B834, symSize: 0x80 }
  - { offset: 0x284157, size: 0x8, addend: 0x0, symName: __ZN10tinyformat6formatIJA5_cA6_cS1_S2_A8_cA7_cEEENSt3__112basic_stringIcNS5_11char_traitsIcEENS5_9allocatorIcEEEEPKcDpRKT_, symObjAddr: 0x1EB4, symBinAddr: 0x10002C9D4, symSize: 0x21C }
  - { offset: 0x284A6E, size: 0x8, addend: 0x0, symName: __ZN10tinyformat6formatIJNSt3__112basic_stringIcNS1_11char_traitsIcEENS1_9allocatorIcEEEEyyddS7_EEES7_PKcDpRKT_, symObjAddr: 0x3A84, symBinAddr: 0x10002CF28, symSize: 0x208 }
  - { offset: 0x285DD6, size: 0x8, addend: 0x0, symName: __ZNK5hilti2rt8Profiler9_registerEv, symObjAddr: 0x0, symBinAddr: 0x10002AF74, symSize: 0x64 }
  - { offset: 0x285E76, size: 0x8, addend: 0x0, symName: __ZNSt3__112__hash_tableINS_17__hash_value_typeINS_12basic_stringIcNS_11char_traitsIcEENS_9allocatorIcEEEEN5hilti2rt8profiler6detail16MeasurementStateEEENS_22__unordered_map_hasherIS7_SD_NS_4hashIS7_EENS_8equal_toIS7_EELb1EEENS_21__unordered_map_equalIS7_SD_SI_SG_Lb1EEENS5_ISD_EEE25__emplace_unique_key_argsIS7_JRKNS_21piecewise_construct_tENS_5tupleIJRKS7_EEENSS_IJEEEEEENS_4pairINS_15__hash_iteratorIPNS_11__hash_nodeISD_PvEEEEbEERKT_DpOT0_, symObjAddr: 0xD08, symBinAddr: 0x10002B8B4, symSize: 0x47C }
  - { offset: 0x2869CE, size: 0x8, addend: 0x0, symName: __ZN5hilti2rt8Profiler8snapshotENSt3__18optionalIyEE, symObjAddr: 0x64, symBinAddr: 0x10002AFD8, symSize: 0x84 }
  - { offset: 0x286D8E, size: 0x8, addend: 0x0, symName: __ZN5hilti2rt8Profiler6recordERKNS0_8profiler11MeasurementE, symObjAddr: 0xE8, symBinAddr: 0x10002B05C, symSize: 0x14C }
  - { offset: 0x2874C9, size: 0x8, addend: 0x0, symName: __ZNSt3__112__hash_tableINS_17__hash_value_typeINS_12basic_stringIcNS_11char_traitsIcEENS_9allocatorIcEEEEN5hilti2rt8profiler6detail16MeasurementStateEEENS_22__unordered_map_hasherIS7_SD_NS_4hashIS7_EENS_8equal_toIS7_EELb1EEENS_21__unordered_map_equalIS7_SD_SI_SG_Lb1EEENS5_ISD_EEE25__emplace_unique_key_argsIS7_JRKNS_21piecewise_construct_tENS_5tupleIJOS7_EEENSS_IJEEEEEENS_4pairINS_15__hash_iteratorIPNS_11__hash_nodeISD_PvEEEEbEERKT_DpOT0_, symObjAddr: 0x1854, symBinAddr: 0x10002C374, symSize: 0x434 }
  - { offset: 0x2882D8, size: 0x8, addend: 0x0, symName: __ZNSt3__16__treeINS_12basic_stringIcNS_11char_traitsIcEENS_9allocatorIcEEEENS_4lessIS6_EENS4_IS6_EEE25__emplace_unique_key_argsIS6_JRKS6_EEENS_4pairINS_15__tree_iteratorIS6_PNS_11__tree_nodeIS6_PvEElEEbEERKT_DpOT0_, symObjAddr: 0x3294, symBinAddr: 0x10002CD80, symSize: 0x1A8 }
  - { offset: 0x2888B2, size: 0x8, addend: 0x0, symName: __ZNKSt3__112__hash_tableINS_17__hash_value_typeINS_12basic_stringIcNS_11char_traitsIcEENS_9allocatorIcEEEEN5hilti2rt8profiler6detail16MeasurementStateEEENS_22__unordered_map_hasherIS7_SD_NS_4hashIS7_EENS_8equal_toIS7_EELb1EEENS_21__unordered_map_equalIS7_SD_SI_SG_Lb1EEENS5_ISD_EEE4findIS7_EENS_21__hash_const_iteratorIPNS_11__hash_nodeISD_PvEEEERKT_, symObjAddr: 0x1C88, symBinAddr: 0x10002C7A8, symSize: 0x22C }
  - { offset: 0x288B79, size: 0x8, addend: 0x0, symName: __ZNSt3__16__treeINS_12basic_stringIcNS_11char_traitsIcEENS_9allocatorIcEEEENS_4lessIS6_EENS4_IS6_EEE7destroyEPNS_11__tree_nodeIS6_PvEE, symObjAddr: 0x3234, symBinAddr: 0x10002CD20, symSize: 0x60 }
  - { offset: 0x289C79, size: 0x8, addend: 0x0, symName: __ZNKSt3__121__murmur2_or_cityhashImLm64EEclB8ne180100EPKvm, symObjAddr: 0x11D0, symBinAddr: 0x10002BD7C, symSize: 0x44C }
  - { offset: 0x28A86E, size: 0x8, addend: 0x0, symName: __ZNSt3__112__hash_tableINS_17__hash_value_typeINS_12basic_stringIcNS_11char_traitsIcEENS_9allocatorIcEEEEN5hilti2rt8profiler6detail16MeasurementStateEEENS_22__unordered_map_hasherIS7_SD_NS_4hashIS7_EENS_8equal_toIS7_EELb1EEENS_21__unordered_map_equalIS7_SD_SI_SG_Lb1EEENS5_ISD_EEE11__do_rehashILb1EEEvm, symObjAddr: 0x16A8, symBinAddr: 0x10002C1C8, symSize: 0x1AC }
  - { offset: 0x28A87F, size: 0x8, addend: 0x0, symName: __ZNSt3__112__hash_tableINS_17__hash_value_typeINS_12basic_stringIcNS_11char_traitsIcEENS_9allocatorIcEEEEN5hilti2rt8profiler6detail16MeasurementStateEEENS_22__unordered_map_hasherIS7_SD_NS_4hashIS7_EENS_8equal_toIS7_EELb1EEENS_21__unordered_map_equalIS7_SD_SI_SG_Lb1EEENS5_ISD_EEE11__do_rehashILb1EEEvm, symObjAddr: 0x16A8, symBinAddr: 0x10002C1C8, symSize: 0x1AC }
  - { offset: 0x28ACD0, size: 0x8, addend: 0x0, symName: __ZNSt3__112__hash_tableINS_17__hash_value_typeINS_12basic_stringIcNS_11char_traitsIcEENS_9allocatorIcEEEEN5hilti2rt8profiler6detail16MeasurementStateEEENS_22__unordered_map_hasherIS7_SD_NS_4hashIS7_EENS_8equal_toIS7_EELb1EEENS_21__unordered_map_equalIS7_SD_SI_SG_Lb1EEENS5_ISD_EEE25__emplace_unique_key_argsIS7_JRKNS_21piecewise_construct_tENS_5tupleIJOS7_EEENSS_IJEEEEEENS_4pairINS_15__hash_iteratorIPNS_11__hash_nodeISD_PvEEEEbEERKT_DpOT0_, symObjAddr: 0x1854, symBinAddr: 0x10002C374, symSize: 0x434 }
  - { offset: 0x28ACE5, size: 0x8, addend: 0x0, symName: __ZNSt3__110unique_ptrINS_11__hash_nodeINS_17__hash_value_typeINS_12basic_stringIcNS_11char_traitsIcEENS_9allocatorIcEEEEN5hilti2rt8profiler6detail16MeasurementStateEEEPvEENS_22__hash_node_destructorINS6_ISG_EEEEED1B8ne180100Ev, symObjAddr: 0x1184, symBinAddr: 0x10002BD30, symSize: 0x4C }
  - { offset: 0x28BED7, size: 0x8, addend: 0x0, symName: __ZN10tinyformat6detail9FormatArg10formatImplIA5_cEEvRNSt3__113basic_ostreamIcNS4_11char_traitsIcEEEEPKcSB_iPKv, symObjAddr: 0x2FD4, symBinAddr: 0x10002CBF0, symSize: 0x90 }
  - { offset: 0x28C089, size: 0x8, addend: 0x0, symName: __ZN10tinyformat6detail9FormatArg9toIntImplIA5_cEEiPKv, symObjAddr: 0x3064, symBinAddr: 0x10002CC80, symSize: 0x8 }
  - { offset: 0x28C0D5, size: 0x8, addend: 0x0, symName: __ZN10tinyformat6detail9FormatArg10formatImplIA6_cEEvRNSt3__113basic_ostreamIcNS4_11char_traitsIcEEEEPKcSB_iPKv, symObjAddr: 0x306C, symBinAddr: 0x10002CC88, symSize: 0x90 }
  - { offset: 0x28C275, size: 0x8, addend: 0x0, symName: __ZN10tinyformat6detail9FormatArg9toIntImplIA6_cEEiPKv, symObjAddr: 0x30FC, symBinAddr: 0x10002CD18, symSize: 0x8 }
  - { offset: 0x28E79F, size: 0x8, addend: 0x0, symName: __ZN5hilti2rt9type_info7addressE, symObjAddr: 0xA3DE8, symBinAddr: 0x1000BC758, symSize: 0x0 }
  - { offset: 0x28EA07, size: 0x8, addend: 0x0, symName: __ZN5hilti2rt9type_info3anyE, symObjAddr: 0xA3E28, symBinAddr: 0x1000BC798, symSize: 0x0 }
  - { offset: 0x28EA21, size: 0x8, addend: 0x0, symName: __ZN5hilti2rt9type_info5bool_E, symObjAddr: 0xA3E68, symBinAddr: 0x1000BC7D8, symSize: 0x0 }
  - { offset: 0x28EA3B, size: 0x8, addend: 0x0, symName: __ZN5hilti2rt9type_info5bytesE, symObjAddr: 0xA3EA8, symBinAddr: 0x1000BC818, symSize: 0x0 }
  - { offset: 0x28EA55, size: 0x8, addend: 0x0, symName: __ZN5hilti2rt9type_info14bytes_iteratorE, symObjAddr: 0xA3EE8, symBinAddr: 0x1000BC858, symSize: 0x0 }
  - { offset: 0x28EA6F, size: 0x8, addend: 0x0, symName: __ZN5hilti2rt9type_info5errorE, symObjAddr: 0xA3F28, symBinAddr: 0x1000BC898, symSize: 0x0 }
  - { offset: 0x28EA89, size: 0x8, addend: 0x0, symName: __ZN5hilti2rt9type_info5int16E, symObjAddr: 0xA3F68, symBinAddr: 0x1000BC8D8, symSize: 0x0 }
  - { offset: 0x28EAA3, size: 0x8, addend: 0x0, symName: __ZN5hilti2rt9type_info5int32E, symObjAddr: 0xA3FA8, symBinAddr: 0x1000BC918, symSize: 0x0 }
  - { offset: 0x28EABD, size: 0x8, addend: 0x0, symName: __ZN5hilti2rt9type_info5int64E, symObjAddr: 0xA3FE8, symBinAddr: 0x1000BC958, symSize: 0x0 }
  - { offset: 0x28EAD7, size: 0x8, addend: 0x0, symName: __ZN5hilti2rt9type_info4int8E, symObjAddr: 0xA4028, symBinAddr: 0x1000BC998, symSize: 0x0 }
  - { offset: 0x28EAF1, size: 0x8, addend: 0x0, symName: __ZN5hilti2rt9type_info8intervalE, symObjAddr: 0xA4068, symBinAddr: 0x1000BC9D8, symSize: 0x0 }
  - { offset: 0x28EB0B, size: 0x8, addend: 0x0, symName: __ZN5hilti2rt9type_info7networkE, symObjAddr: 0xA40A8, symBinAddr: 0x1000BCA18, symSize: 0x0 }
  - { offset: 0x28EB25, size: 0x8, addend: 0x0, symName: __ZN5hilti2rt9type_info4portE, symObjAddr: 0xA40E8, symBinAddr: 0x1000BCA58, symSize: 0x0 }
  - { offset: 0x28EB3F, size: 0x8, addend: 0x0, symName: __ZN5hilti2rt9type_info4realE, symObjAddr: 0xA4128, symBinAddr: 0x1000BCA98, symSize: 0x0 }
  - { offset: 0x28EB59, size: 0x8, addend: 0x0, symName: __ZN5hilti2rt9type_info6regexpE, symObjAddr: 0xA4168, symBinAddr: 0x1000BCAD8, symSize: 0x0 }
  - { offset: 0x28EB73, size: 0x8, addend: 0x0, symName: __ZN5hilti2rt9type_info6streamE, symObjAddr: 0xA41A8, symBinAddr: 0x1000BCB18, symSize: 0x0 }
  - { offset: 0x28EB8D, size: 0x8, addend: 0x0, symName: __ZN5hilti2rt9type_info15stream_iteratorE, symObjAddr: 0xA41E8, symBinAddr: 0x1000BCB58, symSize: 0x0 }
  - { offset: 0x28EBA7, size: 0x8, addend: 0x0, symName: __ZN5hilti2rt9type_info11stream_viewE, symObjAddr: 0xA4228, symBinAddr: 0x1000BCB98, symSize: 0x0 }
  - { offset: 0x28EBC1, size: 0x8, addend: 0x0, symName: __ZN5hilti2rt9type_info6stringE, symObjAddr: 0xA4268, symBinAddr: 0x1000BCBD8, symSize: 0x0 }
  - { offset: 0x28EBDB, size: 0x8, addend: 0x0, symName: __ZN5hilti2rt9type_info4timeE, symObjAddr: 0xA42A8, symBinAddr: 0x1000BCC18, symSize: 0x0 }
  - { offset: 0x28EBF5, size: 0x8, addend: 0x0, symName: __ZN5hilti2rt9type_info5uint8E, symObjAddr: 0xA42E8, symBinAddr: 0x1000BCC58, symSize: 0x0 }
  - { offset: 0x28EC0F, size: 0x8, addend: 0x0, symName: __ZN5hilti2rt9type_info6uint16E, symObjAddr: 0xA4328, symBinAddr: 0x1000BCC98, symSize: 0x0 }
  - { offset: 0x28EC29, size: 0x8, addend: 0x0, symName: __ZN5hilti2rt9type_info6uint32E, symObjAddr: 0xA4368, symBinAddr: 0x1000BCCD8, symSize: 0x0 }
  - { offset: 0x28EC43, size: 0x8, addend: 0x0, symName: __ZN5hilti2rt9type_info6uint64E, symObjAddr: 0xA43A8, symBinAddr: 0x1000BCD18, symSize: 0x0 }
  - { offset: 0x28EC5D, size: 0x8, addend: 0x0, symName: __ZN5hilti2rt9type_info5void_E, symObjAddr: 0xA43E8, symBinAddr: 0x1000BCD58, symSize: 0x0 }
  - { offset: 0x291A41, size: 0x8, addend: 0x0, symName: __ZN5hilti2rt6detail3adl9to_stringERKNS0_6stream4ViewENS2_3tagE, symObjAddr: 0x3364, symBinAddr: 0x10002E180, symSize: 0xC8 }
  - { offset: 0x2924AE, size: 0x8, addend: 0x0, symName: __ZN5hilti2rt9to_stringIRKNS0_6StreamEEENSt3__112basic_stringIcNS5_11char_traitsIcEENS5_9allocatorIcEEEEOT_, symObjAddr: 0x329C, symBinAddr: 0x10002E0B8, symSize: 0xC8 }
  - { offset: 0x29C96F, size: 0x8, addend: 0x0, symName: __ZN10tinyformat6detail15formatTruncatedIsEEvRNSt3__113basic_ostreamIcNS2_11char_traitsIcEEEERKT_i, symObjAddr: 0x1A10, symBinAddr: 0x10002D464, symSize: 0x200 }
  - { offset: 0x29CFEC, size: 0x8, addend: 0x0, symName: __ZN10tinyformat6detail15formatTruncatedIN5hilti2rt7AddressEEEvRNSt3__113basic_ostreamIcNS5_11char_traitsIcEEEERKT_i, symObjAddr: 0x304C, symBinAddr: 0x10002DE68, symSize: 0x23C }
  - { offset: 0x29D6F4, size: 0x8, addend: 0x0, symName: __ZN10tinyformat6detail15formatTruncatedItEEvRNSt3__113basic_ostreamIcNS2_11char_traitsIcEEEERKT_i, symObjAddr: 0x3AB0, symBinAddr: 0x10002E56C, symSize: 0x200 }
  - { offset: 0x29DD13, size: 0x8, addend: 0x0, symName: __ZN10tinyformat6detail15formatTruncatedIjEEvRNSt3__113basic_ostreamIcNS2_11char_traitsIcEEEERKT_i, symObjAddr: 0x3F00, symBinAddr: 0x10002E9BC, symSize: 0x200 }
  - { offset: 0x29E643, size: 0x8, addend: 0x0, symName: __ZN10tinyformat6formatIJsEEENSt3__112basic_stringIcNS1_11char_traitsIcEENS1_9allocatorIcEEEEPKcDpRKT_, symObjAddr: 0x17F0, symBinAddr: 0x10002D244, symSize: 0x1B8 }
  - { offset: 0x29F16A, size: 0x8, addend: 0x0, symName: __ZN10tinyformat6formatIJaEEENSt3__112basic_stringIcNS1_11char_traitsIcEENS1_9allocatorIcEEEEPKcDpRKT_, symObjAddr: 0x24E0, symBinAddr: 0x10002D6F4, symSize: 0x1B8 }
  - { offset: 0x29F634, size: 0x8, addend: 0x0, symName: __ZN10tinyformat6formatIJdEEENSt3__112basic_stringIcNS1_11char_traitsIcEENS1_9allocatorIcEEEEPKcDpRKT_, symObjAddr: 0x277C, symBinAddr: 0x10002D990, symSize: 0x1B8 }
  - { offset: 0x29FABB, size: 0x8, addend: 0x0, symName: __ZN10tinyformat6formatIJN5hilti2rt7AddressEiEEENSt3__112basic_stringIcNS4_11char_traitsIcEENS4_9allocatorIcEEEEPKcDpRKT_, symObjAddr: 0x2DC4, symBinAddr: 0x10002DBE0, symSize: 0x1D0 }
  - { offset: 0x2A036C, size: 0x8, addend: 0x0, symName: __ZN10tinyformat6formatIJtEEENSt3__112basic_stringIcNS1_11char_traitsIcEENS1_9allocatorIcEEEEPKcDpRKT_, symObjAddr: 0x3890, symBinAddr: 0x10002E34C, symSize: 0x1B8 }
  - { offset: 0x2A085D, size: 0x8, addend: 0x0, symName: __ZN10tinyformat6formatIJjEEENSt3__112basic_stringIcNS1_11char_traitsIcEENS1_9allocatorIcEEEEPKcDpRKT_, symObjAddr: 0x3CE0, symBinAddr: 0x10002E79C, symSize: 0x1B8 }
  - { offset: 0x2A2FB8, size: 0x8, addend: 0x0, symName: '__ZN5hilti2rt9type_info3$_08__invokeEPKv', symObjAddr: 0x38, symBinAddr: 0x10002D130, symSize: 0x4 }
  - { offset: 0x2A2FDD, size: 0x8, addend: 0x0, symName: '__ZN5hilti2rt9type_info3$_08__invokeEPKv', symObjAddr: 0x38, symBinAddr: 0x10002D130, symSize: 0x4 }
  - { offset: 0x2A2FF8, size: 0x8, addend: 0x0, symName: '__ZN5hilti2rt9type_info3$_08__invokeEPKv', symObjAddr: 0x38, symBinAddr: 0x10002D130, symSize: 0x4 }
  - { offset: 0x2A3013, size: 0x8, addend: 0x0, symName: '__ZN5hilti2rt9type_info3$_08__invokeEPKv', symObjAddr: 0x38, symBinAddr: 0x10002D130, symSize: 0x4 }
  - { offset: 0x2A31BC, size: 0x8, addend: 0x0, symName: '__ZN5hilti2rt9type_info3$_18__invokeEPKv', symObjAddr: 0x4C, symBinAddr: 0x10002D134, symSize: 0x18 }
  - { offset: 0x2A3492, size: 0x8, addend: 0x0, symName: '__ZN5hilti2rt9type_info3$_28__invokeEPKv', symObjAddr: 0xEC, symBinAddr: 0x10002D14C, symSize: 0x54 }
  - { offset: 0x2A37F1, size: 0x8, addend: 0x0, symName: '__ZN5hilti2rt9type_info3$_38__invokeEPKv', symObjAddr: 0x140, symBinAddr: 0x10002D1A0, symSize: 0x4 }
  - { offset: 0x2A3816, size: 0x8, addend: 0x0, symName: '__ZN5hilti2rt9type_info3$_38__invokeEPKv', symObjAddr: 0x140, symBinAddr: 0x10002D1A0, symSize: 0x4 }
  - { offset: 0x2A3831, size: 0x8, addend: 0x0, symName: '__ZN5hilti2rt9type_info3$_38__invokeEPKv', symObjAddr: 0x140, symBinAddr: 0x10002D1A0, symSize: 0x4 }
  - { offset: 0x2A384F, size: 0x8, addend: 0x0, symName: '__ZN5hilti2rt9type_info3$_38__invokeEPKv', symObjAddr: 0x140, symBinAddr: 0x10002D1A0, symSize: 0x4 }
  - { offset: 0x2A389C, size: 0x8, addend: 0x0, symName: '__ZN5hilti2rt9type_info3$_48__invokeEPKv', symObjAddr: 0x144, symBinAddr: 0x10002D1A4, symSize: 0x20 }
  - { offset: 0x2A3BB7, size: 0x8, addend: 0x0, symName: '__ZN5hilti2rt9type_info3$_58__invokeEPKv', symObjAddr: 0x164, symBinAddr: 0x10002D1C4, symSize: 0x50 }
  - { offset: 0x2A3BDE, size: 0x8, addend: 0x0, symName: '__ZN5hilti2rt9type_info3$_58__invokeEPKv', symObjAddr: 0x164, symBinAddr: 0x10002D1C4, symSize: 0x50 }
  - { offset: 0x2A3BFB, size: 0x8, addend: 0x0, symName: '__ZN5hilti2rt9type_info3$_58__invokeEPKv', symObjAddr: 0x164, symBinAddr: 0x10002D1C4, symSize: 0x50 }
  - { offset: 0x2A3C18, size: 0x8, addend: 0x0, symName: '__ZN5hilti2rt9type_info3$_58__invokeEPKv', symObjAddr: 0x164, symBinAddr: 0x10002D1C4, symSize: 0x50 }
  - { offset: 0x2A3C35, size: 0x8, addend: 0x0, symName: '__ZN5hilti2rt9type_info3$_58__invokeEPKv', symObjAddr: 0x164, symBinAddr: 0x10002D1C4, symSize: 0x50 }
  - { offset: 0x2A3C50, size: 0x8, addend: 0x0, symName: '__ZN5hilti2rt9type_info3$_58__invokeEPKv', symObjAddr: 0x164, symBinAddr: 0x10002D1C4, symSize: 0x50 }
  - { offset: 0x2A3C6C, size: 0x8, addend: 0x0, symName: '__ZN5hilti2rt9type_info3$_58__invokeEPKv', symObjAddr: 0x164, symBinAddr: 0x10002D1C4, symSize: 0x50 }
  - { offset: 0x2A48EB, size: 0x8, addend: 0x0, symName: '__ZN5hilti2rt9type_info3$_68__invokeEPKv', symObjAddr: 0x17C0, symBinAddr: 0x10002D214, symSize: 0x30 }
  - { offset: 0x2A4A77, size: 0x8, addend: 0x0, symName: __ZN10tinyformat6detail9FormatArg10formatImplIsEEvRNSt3__113basic_ostreamIcNS3_11char_traitsIcEEEEPKcSA_iPKv, symObjAddr: 0x19A8, symBinAddr: 0x10002D3FC, symSize: 0x60 }
  - { offset: 0x2A4B8B, size: 0x8, addend: 0x0, symName: __ZN10tinyformat6detail9FormatArg9toIntImplIsEEiPKv, symObjAddr: 0x1A08, symBinAddr: 0x10002D45C, symSize: 0x8 }
  - { offset: 0x2A4BB2, size: 0x8, addend: 0x0, symName: __ZN10tinyformat6detail9FormatArg9toIntImplIsEEiPKv, symObjAddr: 0x1A08, symBinAddr: 0x10002D45C, symSize: 0x8 }
  - { offset: 0x2A4C09, size: 0x8, addend: 0x0, symName: '__ZN5hilti2rt9type_info3$_78__invokeEPKv', symObjAddr: 0x1C10, symBinAddr: 0x10002D664, symSize: 0x30 }
  - { offset: 0x2A4DAA, size: 0x8, addend: 0x0, symName: '__ZN5hilti2rt9type_info3$_88__invokeEPKv', symObjAddr: 0x2060, symBinAddr: 0x10002D694, symSize: 0x30 }
  - { offset: 0x2A4F4B, size: 0x8, addend: 0x0, symName: '__ZN5hilti2rt9type_info3$_98__invokeEPKv', symObjAddr: 0x24B0, symBinAddr: 0x10002D6C4, symSize: 0x30 }
  - { offset: 0x2A50B9, size: 0x8, addend: 0x0, symName: __ZN10tinyformat6detail9FormatArg10formatImplIaEEvRNSt3__113basic_ostreamIcNS3_11char_traitsIcEEEEPKcSA_iPKv, symObjAddr: 0x2698, symBinAddr: 0x10002D8AC, symSize: 0x68 }
  - { offset: 0x2A5199, size: 0x8, addend: 0x0, symName: __ZN10tinyformat6detail9FormatArg9toIntImplIaEEiPKv, symObjAddr: 0x2700, symBinAddr: 0x10002D914, symSize: 0x8 }
  - { offset: 0x2A51C0, size: 0x8, addend: 0x0, symName: __ZN10tinyformat6detail9FormatArg9toIntImplIaEEiPKv, symObjAddr: 0x2700, symBinAddr: 0x10002D914, symSize: 0x8 }
  - { offset: 0x2A532D, size: 0x8, addend: 0x0, symName: '__ZN5hilti2rt9type_info4$_108__invokeEPKv', symObjAddr: 0x2708, symBinAddr: 0x10002D91C, symSize: 0x74 }
  - { offset: 0x2A556A, size: 0x8, addend: 0x0, symName: '__ZN5hilti2rt9type_info4$_118__invokeEPKv', symObjAddr: 0x2D2C, symBinAddr: 0x10002DB48, symSize: 0x98 }
  - { offset: 0x2A5997, size: 0x8, addend: 0x0, symName: __ZN10tinyformat6detail9FormatArg10formatImplIN5hilti2rt7AddressEEEvRNSt3__113basic_ostreamIcNS6_11char_traitsIcEEEEPKcSD_iPKv, symObjAddr: 0x2F94, symBinAddr: 0x10002DDB0, symSize: 0xB0 }
  - { offset: 0x2A5D60, size: 0x8, addend: 0x0, symName: __ZN10tinyformat6detail9FormatArg9toIntImplIN5hilti2rt7AddressEEEiPKv, symObjAddr: 0x3044, symBinAddr: 0x10002DE60, symSize: 0x8 }
  - { offset: 0x2A5DC1, size: 0x8, addend: 0x0, symName: '__ZN5hilti2rt9type_info4$_128__invokeEPKv', symObjAddr: 0x3288, symBinAddr: 0x10002E0A4, symSize: 0x4 }
  - { offset: 0x2A5DE6, size: 0x8, addend: 0x0, symName: '__ZN5hilti2rt9type_info4$_128__invokeEPKv', symObjAddr: 0x3288, symBinAddr: 0x10002E0A4, symSize: 0x4 }
  - { offset: 0x2A5E01, size: 0x8, addend: 0x0, symName: '__ZN5hilti2rt9type_info4$_128__invokeEPKv', symObjAddr: 0x3288, symBinAddr: 0x10002E0A4, symSize: 0x4 }
  - { offset: 0x2A5E1C, size: 0x8, addend: 0x0, symName: '__ZN5hilti2rt9type_info4$_128__invokeEPKv', symObjAddr: 0x3288, symBinAddr: 0x10002E0A4, symSize: 0x4 }
  - { offset: 0x2A5E6B, size: 0x8, addend: 0x0, symName: '__ZN5hilti2rt9type_info4$_138__invokeEPKv', symObjAddr: 0x328C, symBinAddr: 0x10002E0A8, symSize: 0x8 }
  - { offset: 0x2A5F01, size: 0x8, addend: 0x0, symName: '__ZN5hilti2rt9type_info4$_148__invokeEPKv', symObjAddr: 0x3294, symBinAddr: 0x10002E0B0, symSize: 0x4 }
  - { offset: 0x2A5F26, size: 0x8, addend: 0x0, symName: '__ZN5hilti2rt9type_info4$_148__invokeEPKv', symObjAddr: 0x3294, symBinAddr: 0x10002E0B0, symSize: 0x4 }
  - { offset: 0x2A5F41, size: 0x8, addend: 0x0, symName: '__ZN5hilti2rt9type_info4$_148__invokeEPKv', symObjAddr: 0x3294, symBinAddr: 0x10002E0B0, symSize: 0x4 }
  - { offset: 0x2A5F5F, size: 0x8, addend: 0x0, symName: '__ZN5hilti2rt9type_info4$_148__invokeEPKv', symObjAddr: 0x3294, symBinAddr: 0x10002E0B0, symSize: 0x4 }
  - { offset: 0x2A5FAC, size: 0x8, addend: 0x0, symName: '__ZN5hilti2rt9type_info4$_158__invokeEPKv', symObjAddr: 0x3298, symBinAddr: 0x10002E0B4, symSize: 0x4 }
  - { offset: 0x2A5FD1, size: 0x8, addend: 0x0, symName: '__ZN5hilti2rt9type_info4$_158__invokeEPKv', symObjAddr: 0x3298, symBinAddr: 0x10002E0B4, symSize: 0x4 }
  - { offset: 0x2A5FEE, size: 0x8, addend: 0x0, symName: '__ZN5hilti2rt9type_info4$_158__invokeEPKv', symObjAddr: 0x3298, symBinAddr: 0x10002E0B4, symSize: 0x4 }
  - { offset: 0x2A698D, size: 0x8, addend: 0x0, symName: '__ZN5hilti2rt9type_info4$_168__invokeEPKv', symObjAddr: 0x3568, symBinAddr: 0x10002E248, symSize: 0x4 }
  - { offset: 0x2A69B2, size: 0x8, addend: 0x0, symName: '__ZN5hilti2rt9type_info4$_168__invokeEPKv', symObjAddr: 0x3568, symBinAddr: 0x10002E248, symSize: 0x4 }
  - { offset: 0x2A69CD, size: 0x8, addend: 0x0, symName: '__ZN5hilti2rt9type_info4$_168__invokeEPKv', symObjAddr: 0x3568, symBinAddr: 0x10002E248, symSize: 0x4 }
  - { offset: 0x2A69EB, size: 0x8, addend: 0x0, symName: '__ZN5hilti2rt9type_info4$_168__invokeEPKv', symObjAddr: 0x3568, symBinAddr: 0x10002E248, symSize: 0x4 }
  - { offset: 0x2A6A38, size: 0x8, addend: 0x0, symName: '__ZN5hilti2rt9type_info4$_178__invokeEPKv', symObjAddr: 0x356C, symBinAddr: 0x10002E24C, symSize: 0x4 }
  - { offset: 0x2A6A5D, size: 0x8, addend: 0x0, symName: '__ZN5hilti2rt9type_info4$_178__invokeEPKv', symObjAddr: 0x356C, symBinAddr: 0x10002E24C, symSize: 0x4 }
  - { offset: 0x2A6A78, size: 0x8, addend: 0x0, symName: '__ZN5hilti2rt9type_info4$_178__invokeEPKv', symObjAddr: 0x356C, symBinAddr: 0x10002E24C, symSize: 0x4 }
  - { offset: 0x2A6A96, size: 0x8, addend: 0x0, symName: '__ZN5hilti2rt9type_info4$_178__invokeEPKv', symObjAddr: 0x356C, symBinAddr: 0x10002E24C, symSize: 0x4 }
  - { offset: 0x2A6AE3, size: 0x8, addend: 0x0, symName: '__ZN5hilti2rt9type_info4$_188__invokeEPKv', symObjAddr: 0x3570, symBinAddr: 0x10002E250, symSize: 0x98 }
  - { offset: 0x2A6E86, size: 0x8, addend: 0x0, symName: '__ZN5hilti2rt9type_info4$_198__invokeEPKv', symObjAddr: 0x3608, symBinAddr: 0x10002E2E8, symSize: 0x4 }
  - { offset: 0x2A6EAB, size: 0x8, addend: 0x0, symName: '__ZN5hilti2rt9type_info4$_198__invokeEPKv', symObjAddr: 0x3608, symBinAddr: 0x10002E2E8, symSize: 0x4 }
  - { offset: 0x2A6EC6, size: 0x8, addend: 0x0, symName: '__ZN5hilti2rt9type_info4$_198__invokeEPKv', symObjAddr: 0x3608, symBinAddr: 0x10002E2E8, symSize: 0x4 }
  - { offset: 0x2A6EE1, size: 0x8, addend: 0x0, symName: '__ZN5hilti2rt9type_info4$_198__invokeEPKv', symObjAddr: 0x3608, symBinAddr: 0x10002E2E8, symSize: 0x4 }
  - { offset: 0x2A6F30, size: 0x8, addend: 0x0, symName: '__ZN5hilti2rt9type_info4$_208__invokeEPKv', symObjAddr: 0x360C, symBinAddr: 0x10002E2EC, symSize: 0x30 }
  - { offset: 0x2A70D1, size: 0x8, addend: 0x0, symName: '__ZN5hilti2rt9type_info4$_218__invokeEPKv', symObjAddr: 0x3860, symBinAddr: 0x10002E31C, symSize: 0x30 }
  - { offset: 0x2A725D, size: 0x8, addend: 0x0, symName: __ZN10tinyformat6detail9FormatArg10formatImplItEEvRNSt3__113basic_ostreamIcNS3_11char_traitsIcEEEEPKcSA_iPKv, symObjAddr: 0x3A48, symBinAddr: 0x10002E504, symSize: 0x60 }
  - { offset: 0x2A7371, size: 0x8, addend: 0x0, symName: __ZN10tinyformat6detail9FormatArg9toIntImplItEEiPKv, symObjAddr: 0x3AA8, symBinAddr: 0x10002E564, symSize: 0x8 }
  - { offset: 0x2A7398, size: 0x8, addend: 0x0, symName: __ZN10tinyformat6detail9FormatArg9toIntImplItEEiPKv, symObjAddr: 0x3AA8, symBinAddr: 0x10002E564, symSize: 0x8 }
  - { offset: 0x2A73EF, size: 0x8, addend: 0x0, symName: '__ZN5hilti2rt9type_info4$_228__invokeEPKv', symObjAddr: 0x3CB0, symBinAddr: 0x10002E76C, symSize: 0x30 }
  - { offset: 0x2A757B, size: 0x8, addend: 0x0, symName: __ZN10tinyformat6detail9FormatArg10formatImplIjEEvRNSt3__113basic_ostreamIcNS3_11char_traitsIcEEEEPKcSA_iPKv, symObjAddr: 0x3E98, symBinAddr: 0x10002E954, symSize: 0x60 }
  - { offset: 0x2A768F, size: 0x8, addend: 0x0, symName: __ZN10tinyformat6detail9FormatArg9toIntImplIjEEiPKv, symObjAddr: 0x3EF8, symBinAddr: 0x10002E9B4, symSize: 0x8 }
  - { offset: 0x2A76B6, size: 0x8, addend: 0x0, symName: __ZN10tinyformat6detail9FormatArg9toIntImplIjEEiPKv, symObjAddr: 0x3EF8, symBinAddr: 0x10002E9B4, symSize: 0x8 }
  - { offset: 0x2A770D, size: 0x8, addend: 0x0, symName: '__ZN5hilti2rt9type_info4$_238__invokeEPKv', symObjAddr: 0x4100, symBinAddr: 0x10002EBBC, symSize: 0x30 }
  - { offset: 0x2A78AE, size: 0x8, addend: 0x0, symName: '__ZN5hilti2rt9type_info4$_248__invokeEPKv', symObjAddr: 0x4550, symBinAddr: 0x10002EBEC, symSize: 0x1C }
  - { offset: 0x2A7B25, size: 0x8, addend: 0x0, symName: __ZZN5hilti2rt8TypeInfoC1INS0_9type_info7AddressEEENSt3__18optionalIPKcEES8_PFNS5_12basic_stringIcNS5_11char_traitsIcEENS5_9allocatorIcEEEEPKvEPT_ENUlS8_E_8__invokeES8_, symObjAddr: 0x456C, symBinAddr: 0x10002EC08, symSize: 0xC }
  - { offset: 0x2A7B4F, size: 0x8, addend: 0x0, symName: __ZZN5hilti2rt8TypeInfoC1INS0_9type_info7AddressEEENSt3__18optionalIPKcEES8_PFNS5_12basic_stringIcNS5_11char_traitsIcEENS5_9allocatorIcEEEEPKvEPT_ENUlS8_E_8__invokeES8_, symObjAddr: 0x456C, symBinAddr: 0x10002EC08, symSize: 0xC }
  - { offset: 0x2A7BCB, size: 0x8, addend: 0x0, symName: __ZZN5hilti2rt8TypeInfoC1INS0_9type_info3AnyEEENSt3__18optionalIPKcEES8_PFNS5_12basic_stringIcNS5_11char_traitsIcEENS5_9allocatorIcEEEEPKvEPT_ENUlS8_E_8__invokeES8_, symObjAddr: 0x4578, symBinAddr: 0x10002EC14, symSize: 0xC }
  - { offset: 0x2A7BF5, size: 0x8, addend: 0x0, symName: __ZZN5hilti2rt8TypeInfoC1INS0_9type_info3AnyEEENSt3__18optionalIPKcEES8_PFNS5_12basic_stringIcNS5_11char_traitsIcEENS5_9allocatorIcEEEEPKvEPT_ENUlS8_E_8__invokeES8_, symObjAddr: 0x4578, symBinAddr: 0x10002EC14, symSize: 0xC }
  - { offset: 0x2A7C71, size: 0x8, addend: 0x0, symName: __ZZN5hilti2rt8TypeInfoC1INS0_9type_info4BoolEEENSt3__18optionalIPKcEES8_PFNS5_12basic_stringIcNS5_11char_traitsIcEENS5_9allocatorIcEEEEPKvEPT_ENUlS8_E_8__invokeES8_, symObjAddr: 0x4584, symBinAddr: 0x10002EC20, symSize: 0xC }
  - { offset: 0x2A7C9B, size: 0x8, addend: 0x0, symName: __ZZN5hilti2rt8TypeInfoC1INS0_9type_info4BoolEEENSt3__18optionalIPKcEES8_PFNS5_12basic_stringIcNS5_11char_traitsIcEENS5_9allocatorIcEEEEPKvEPT_ENUlS8_E_8__invokeES8_, symObjAddr: 0x4584, symBinAddr: 0x10002EC20, symSize: 0xC }
  - { offset: 0x2A7D17, size: 0x8, addend: 0x0, symName: __ZZN5hilti2rt8TypeInfoC1INS0_9type_info5BytesEEENSt3__18optionalIPKcEES8_PFNS5_12basic_stringIcNS5_11char_traitsIcEENS5_9allocatorIcEEEEPKvEPT_ENUlS8_E_8__invokeES8_, symObjAddr: 0x4590, symBinAddr: 0x10002EC2C, symSize: 0xC }
  - { offset: 0x2A7D41, size: 0x8, addend: 0x0, symName: __ZZN5hilti2rt8TypeInfoC1INS0_9type_info5BytesEEENSt3__18optionalIPKcEES8_PFNS5_12basic_stringIcNS5_11char_traitsIcEENS5_9allocatorIcEEEEPKvEPT_ENUlS8_E_8__invokeES8_, symObjAddr: 0x4590, symBinAddr: 0x10002EC2C, symSize: 0xC }
  - { offset: 0x2A7DBD, size: 0x8, addend: 0x0, symName: __ZZN5hilti2rt8TypeInfoC1INS0_9type_info13BytesIteratorEEENSt3__18optionalIPKcEES8_PFNS5_12basic_stringIcNS5_11char_traitsIcEENS5_9allocatorIcEEEEPKvEPT_ENUlS8_E_8__invokeES8_, symObjAddr: 0x459C, symBinAddr: 0x10002EC38, symSize: 0xC }
  - { offset: 0x2A7DE7, size: 0x8, addend: 0x0, symName: __ZZN5hilti2rt8TypeInfoC1INS0_9type_info13BytesIteratorEEENSt3__18optionalIPKcEES8_PFNS5_12basic_stringIcNS5_11char_traitsIcEENS5_9allocatorIcEEEEPKvEPT_ENUlS8_E_8__invokeES8_, symObjAddr: 0x459C, symBinAddr: 0x10002EC38, symSize: 0xC }
  - { offset: 0x2A7E63, size: 0x8, addend: 0x0, symName: __ZZN5hilti2rt8TypeInfoC1INS0_9type_info5ErrorEEENSt3__18optionalIPKcEES8_PFNS5_12basic_stringIcNS5_11char_traitsIcEENS5_9allocatorIcEEEEPKvEPT_ENUlS8_E_8__invokeES8_, symObjAddr: 0x45A8, symBinAddr: 0x10002EC44, symSize: 0xC }
  - { offset: 0x2A7E8D, size: 0x8, addend: 0x0, symName: __ZZN5hilti2rt8TypeInfoC1INS0_9type_info5ErrorEEENSt3__18optionalIPKcEES8_PFNS5_12basic_stringIcNS5_11char_traitsIcEENS5_9allocatorIcEEEEPKvEPT_ENUlS8_E_8__invokeES8_, symObjAddr: 0x45A8, symBinAddr: 0x10002EC44, symSize: 0xC }
  - { offset: 0x2A7F09, size: 0x8, addend: 0x0, symName: __ZZN5hilti2rt8TypeInfoC1INS0_9type_info13SignedIntegerIsEEEENSt3__18optionalIPKcEES9_PFNS6_12basic_stringIcNS6_11char_traitsIcEENS6_9allocatorIcEEEEPKvEPT_ENUlS9_E_8__invokeES9_, symObjAddr: 0x45B4, symBinAddr: 0x10002EC50, symSize: 0xC }
  - { offset: 0x2A7F33, size: 0x8, addend: 0x0, symName: __ZZN5hilti2rt8TypeInfoC1INS0_9type_info13SignedIntegerIsEEEENSt3__18optionalIPKcEES9_PFNS6_12basic_stringIcNS6_11char_traitsIcEENS6_9allocatorIcEEEEPKvEPT_ENUlS9_E_8__invokeES9_, symObjAddr: 0x45B4, symBinAddr: 0x10002EC50, symSize: 0xC }
  - { offset: 0x2A7FAF, size: 0x8, addend: 0x0, symName: __ZZN5hilti2rt8TypeInfoC1INS0_9type_info13SignedIntegerIiEEEENSt3__18optionalIPKcEES9_PFNS6_12basic_stringIcNS6_11char_traitsIcEENS6_9allocatorIcEEEEPKvEPT_ENUlS9_E_8__invokeES9_, symObjAddr: 0x45C0, symBinAddr: 0x10002EC5C, symSize: 0xC }
  - { offset: 0x2A7FD9, size: 0x8, addend: 0x0, symName: __ZZN5hilti2rt8TypeInfoC1INS0_9type_info13SignedIntegerIiEEEENSt3__18optionalIPKcEES9_PFNS6_12basic_stringIcNS6_11char_traitsIcEENS6_9allocatorIcEEEEPKvEPT_ENUlS9_E_8__invokeES9_, symObjAddr: 0x45C0, symBinAddr: 0x10002EC5C, symSize: 0xC }
  - { offset: 0x2A8055, size: 0x8, addend: 0x0, symName: __ZZN5hilti2rt8TypeInfoC1INS0_9type_info13SignedIntegerIxEEEENSt3__18optionalIPKcEES9_PFNS6_12basic_stringIcNS6_11char_traitsIcEENS6_9allocatorIcEEEEPKvEPT_ENUlS9_E_8__invokeES9_, symObjAddr: 0x45CC, symBinAddr: 0x10002EC68, symSize: 0xC }
  - { offset: 0x2A807F, size: 0x8, addend: 0x0, symName: __ZZN5hilti2rt8TypeInfoC1INS0_9type_info13SignedIntegerIxEEEENSt3__18optionalIPKcEES9_PFNS6_12basic_stringIcNS6_11char_traitsIcEENS6_9allocatorIcEEEEPKvEPT_ENUlS9_E_8__invokeES9_, symObjAddr: 0x45CC, symBinAddr: 0x10002EC68, symSize: 0xC }
  - { offset: 0x2A80FB, size: 0x8, addend: 0x0, symName: __ZZN5hilti2rt8TypeInfoC1INS0_9type_info13SignedIntegerIaEEEENSt3__18optionalIPKcEES9_PFNS6_12basic_stringIcNS6_11char_traitsIcEENS6_9allocatorIcEEEEPKvEPT_ENUlS9_E_8__invokeES9_, symObjAddr: 0x45D8, symBinAddr: 0x10002EC74, symSize: 0xC }
  - { offset: 0x2A8125, size: 0x8, addend: 0x0, symName: __ZZN5hilti2rt8TypeInfoC1INS0_9type_info13SignedIntegerIaEEEENSt3__18optionalIPKcEES9_PFNS6_12basic_stringIcNS6_11char_traitsIcEENS6_9allocatorIcEEEEPKvEPT_ENUlS9_E_8__invokeES9_, symObjAddr: 0x45D8, symBinAddr: 0x10002EC74, symSize: 0xC }
  - { offset: 0x2A81A1, size: 0x8, addend: 0x0, symName: __ZZN5hilti2rt8TypeInfoC1INS0_9type_info8IntervalEEENSt3__18optionalIPKcEES8_PFNS5_12basic_stringIcNS5_11char_traitsIcEENS5_9allocatorIcEEEEPKvEPT_ENUlS8_E_8__invokeES8_, symObjAddr: 0x45E4, symBinAddr: 0x10002EC80, symSize: 0xC }
  - { offset: 0x2A81CB, size: 0x8, addend: 0x0, symName: __ZZN5hilti2rt8TypeInfoC1INS0_9type_info8IntervalEEENSt3__18optionalIPKcEES8_PFNS5_12basic_stringIcNS5_11char_traitsIcEENS5_9allocatorIcEEEEPKvEPT_ENUlS8_E_8__invokeES8_, symObjAddr: 0x45E4, symBinAddr: 0x10002EC80, symSize: 0xC }
  - { offset: 0x2A8247, size: 0x8, addend: 0x0, symName: __ZZN5hilti2rt8TypeInfoC1INS0_9type_info7NetworkEEENSt3__18optionalIPKcEES8_PFNS5_12basic_stringIcNS5_11char_traitsIcEENS5_9allocatorIcEEEEPKvEPT_ENUlS8_E_8__invokeES8_, symObjAddr: 0x45F0, symBinAddr: 0x10002EC8C, symSize: 0xC }
  - { offset: 0x2A8271, size: 0x8, addend: 0x0, symName: __ZZN5hilti2rt8TypeInfoC1INS0_9type_info7NetworkEEENSt3__18optionalIPKcEES8_PFNS5_12basic_stringIcNS5_11char_traitsIcEENS5_9allocatorIcEEEEPKvEPT_ENUlS8_E_8__invokeES8_, symObjAddr: 0x45F0, symBinAddr: 0x10002EC8C, symSize: 0xC }
  - { offset: 0x2A82ED, size: 0x8, addend: 0x0, symName: __ZZN5hilti2rt8TypeInfoC1INS0_9type_info4PortEEENSt3__18optionalIPKcEES8_PFNS5_12basic_stringIcNS5_11char_traitsIcEENS5_9allocatorIcEEEEPKvEPT_ENUlS8_E_8__invokeES8_, symObjAddr: 0x45FC, symBinAddr: 0x10002EC98, symSize: 0xC }
  - { offset: 0x2A8317, size: 0x8, addend: 0x0, symName: __ZZN5hilti2rt8TypeInfoC1INS0_9type_info4PortEEENSt3__18optionalIPKcEES8_PFNS5_12basic_stringIcNS5_11char_traitsIcEENS5_9allocatorIcEEEEPKvEPT_ENUlS8_E_8__invokeES8_, symObjAddr: 0x45FC, symBinAddr: 0x10002EC98, symSize: 0xC }
  - { offset: 0x2A8393, size: 0x8, addend: 0x0, symName: __ZZN5hilti2rt8TypeInfoC1INS0_9type_info4RealEEENSt3__18optionalIPKcEES8_PFNS5_12basic_stringIcNS5_11char_traitsIcEENS5_9allocatorIcEEEEPKvEPT_ENUlS8_E_8__invokeES8_, symObjAddr: 0x4608, symBinAddr: 0x10002ECA4, symSize: 0xC }
  - { offset: 0x2A83BD, size: 0x8, addend: 0x0, symName: __ZZN5hilti2rt8TypeInfoC1INS0_9type_info4RealEEENSt3__18optionalIPKcEES8_PFNS5_12basic_stringIcNS5_11char_traitsIcEENS5_9allocatorIcEEEEPKvEPT_ENUlS8_E_8__invokeES8_, symObjAddr: 0x4608, symBinAddr: 0x10002ECA4, symSize: 0xC }
  - { offset: 0x2A8439, size: 0x8, addend: 0x0, symName: __ZZN5hilti2rt8TypeInfoC1INS0_9type_info6RegExpEEENSt3__18optionalIPKcEES8_PFNS5_12basic_stringIcNS5_11char_traitsIcEENS5_9allocatorIcEEEEPKvEPT_ENUlS8_E_8__invokeES8_, symObjAddr: 0x4614, symBinAddr: 0x10002ECB0, symSize: 0xC }
  - { offset: 0x2A8463, size: 0x8, addend: 0x0, symName: __ZZN5hilti2rt8TypeInfoC1INS0_9type_info6RegExpEEENSt3__18optionalIPKcEES8_PFNS5_12basic_stringIcNS5_11char_traitsIcEENS5_9allocatorIcEEEEPKvEPT_ENUlS8_E_8__invokeES8_, symObjAddr: 0x4614, symBinAddr: 0x10002ECB0, symSize: 0xC }
  - { offset: 0x2A84DF, size: 0x8, addend: 0x0, symName: __ZZN5hilti2rt8TypeInfoC1INS0_9type_info6StreamEEENSt3__18optionalIPKcEES8_PFNS5_12basic_stringIcNS5_11char_traitsIcEENS5_9allocatorIcEEEEPKvEPT_ENUlS8_E_8__invokeES8_, symObjAddr: 0x4620, symBinAddr: 0x10002ECBC, symSize: 0xC }
  - { offset: 0x2A8509, size: 0x8, addend: 0x0, symName: __ZZN5hilti2rt8TypeInfoC1INS0_9type_info6StreamEEENSt3__18optionalIPKcEES8_PFNS5_12basic_stringIcNS5_11char_traitsIcEENS5_9allocatorIcEEEEPKvEPT_ENUlS8_E_8__invokeES8_, symObjAddr: 0x4620, symBinAddr: 0x10002ECBC, symSize: 0xC }
  - { offset: 0x2A8585, size: 0x8, addend: 0x0, symName: __ZZN5hilti2rt8TypeInfoC1INS0_9type_info14StreamIteratorEEENSt3__18optionalIPKcEES8_PFNS5_12basic_stringIcNS5_11char_traitsIcEENS5_9allocatorIcEEEEPKvEPT_ENUlS8_E_8__invokeES8_, symObjAddr: 0x462C, symBinAddr: 0x10002ECC8, symSize: 0xC }
  - { offset: 0x2A85AF, size: 0x8, addend: 0x0, symName: __ZZN5hilti2rt8TypeInfoC1INS0_9type_info14StreamIteratorEEENSt3__18optionalIPKcEES8_PFNS5_12basic_stringIcNS5_11char_traitsIcEENS5_9allocatorIcEEEEPKvEPT_ENUlS8_E_8__invokeES8_, symObjAddr: 0x462C, symBinAddr: 0x10002ECC8, symSize: 0xC }
  - { offset: 0x2A862B, size: 0x8, addend: 0x0, symName: __ZZN5hilti2rt8TypeInfoC1INS0_9type_info10StreamViewEEENSt3__18optionalIPKcEES8_PFNS5_12basic_stringIcNS5_11char_traitsIcEENS5_9allocatorIcEEEEPKvEPT_ENUlS8_E_8__invokeES8_, symObjAddr: 0x4638, symBinAddr: 0x10002ECD4, symSize: 0xC }
  - { offset: 0x2A8655, size: 0x8, addend: 0x0, symName: __ZZN5hilti2rt8TypeInfoC1INS0_9type_info10StreamViewEEENSt3__18optionalIPKcEES8_PFNS5_12basic_stringIcNS5_11char_traitsIcEENS5_9allocatorIcEEEEPKvEPT_ENUlS8_E_8__invokeES8_, symObjAddr: 0x4638, symBinAddr: 0x10002ECD4, symSize: 0xC }
  - { offset: 0x2A86D1, size: 0x8, addend: 0x0, symName: __ZZN5hilti2rt8TypeInfoC1INS0_9type_info6StringEEENSt3__18optionalIPKcEES8_PFNS5_12basic_stringIcNS5_11char_traitsIcEENS5_9allocatorIcEEEEPKvEPT_ENUlS8_E_8__invokeES8_, symObjAddr: 0x4644, symBinAddr: 0x10002ECE0, symSize: 0xC }
  - { offset: 0x2A86FB, size: 0x8, addend: 0x0, symName: __ZZN5hilti2rt8TypeInfoC1INS0_9type_info6StringEEENSt3__18optionalIPKcEES8_PFNS5_12basic_stringIcNS5_11char_traitsIcEENS5_9allocatorIcEEEEPKvEPT_ENUlS8_E_8__invokeES8_, symObjAddr: 0x4644, symBinAddr: 0x10002ECE0, symSize: 0xC }
  - { offset: 0x2A8777, size: 0x8, addend: 0x0, symName: __ZZN5hilti2rt8TypeInfoC1INS0_9type_info4TimeEEENSt3__18optionalIPKcEES8_PFNS5_12basic_stringIcNS5_11char_traitsIcEENS5_9allocatorIcEEEEPKvEPT_ENUlS8_E_8__invokeES8_, symObjAddr: 0x4650, symBinAddr: 0x10002ECEC, symSize: 0xC }
  - { offset: 0x2A87A1, size: 0x8, addend: 0x0, symName: __ZZN5hilti2rt8TypeInfoC1INS0_9type_info4TimeEEENSt3__18optionalIPKcEES8_PFNS5_12basic_stringIcNS5_11char_traitsIcEENS5_9allocatorIcEEEEPKvEPT_ENUlS8_E_8__invokeES8_, symObjAddr: 0x4650, symBinAddr: 0x10002ECEC, symSize: 0xC }
  - { offset: 0x2A881D, size: 0x8, addend: 0x0, symName: __ZZN5hilti2rt8TypeInfoC1INS0_9type_info15UnsignedIntegerIhEEEENSt3__18optionalIPKcEES9_PFNS6_12basic_stringIcNS6_11char_traitsIcEENS6_9allocatorIcEEEEPKvEPT_ENUlS9_E_8__invokeES9_, symObjAddr: 0x465C, symBinAddr: 0x10002ECF8, symSize: 0xC }
  - { offset: 0x2A8847, size: 0x8, addend: 0x0, symName: __ZZN5hilti2rt8TypeInfoC1INS0_9type_info15UnsignedIntegerIhEEEENSt3__18optionalIPKcEES9_PFNS6_12basic_stringIcNS6_11char_traitsIcEENS6_9allocatorIcEEEEPKvEPT_ENUlS9_E_8__invokeES9_, symObjAddr: 0x465C, symBinAddr: 0x10002ECF8, symSize: 0xC }
  - { offset: 0x2A88C3, size: 0x8, addend: 0x0, symName: __ZZN5hilti2rt8TypeInfoC1INS0_9type_info15UnsignedIntegerItEEEENSt3__18optionalIPKcEES9_PFNS6_12basic_stringIcNS6_11char_traitsIcEENS6_9allocatorIcEEEEPKvEPT_ENUlS9_E_8__invokeES9_, symObjAddr: 0x4668, symBinAddr: 0x10002ED04, symSize: 0xC }
  - { offset: 0x2A88ED, size: 0x8, addend: 0x0, symName: __ZZN5hilti2rt8TypeInfoC1INS0_9type_info15UnsignedIntegerItEEEENSt3__18optionalIPKcEES9_PFNS6_12basic_stringIcNS6_11char_traitsIcEENS6_9allocatorIcEEEEPKvEPT_ENUlS9_E_8__invokeES9_, symObjAddr: 0x4668, symBinAddr: 0x10002ED04, symSize: 0xC }
  - { offset: 0x2A8969, size: 0x8, addend: 0x0, symName: __ZZN5hilti2rt8TypeInfoC1INS0_9type_info15UnsignedIntegerIjEEEENSt3__18optionalIPKcEES9_PFNS6_12basic_stringIcNS6_11char_traitsIcEENS6_9allocatorIcEEEEPKvEPT_ENUlS9_E_8__invokeES9_, symObjAddr: 0x4674, symBinAddr: 0x10002ED10, symSize: 0xC }
  - { offset: 0x2A8993, size: 0x8, addend: 0x0, symName: __ZZN5hilti2rt8TypeInfoC1INS0_9type_info15UnsignedIntegerIjEEEENSt3__18optionalIPKcEES9_PFNS6_12basic_stringIcNS6_11char_traitsIcEENS6_9allocatorIcEEEEPKvEPT_ENUlS9_E_8__invokeES9_, symObjAddr: 0x4674, symBinAddr: 0x10002ED10, symSize: 0xC }
  - { offset: 0x2A8A0F, size: 0x8, addend: 0x0, symName: __ZZN5hilti2rt8TypeInfoC1INS0_9type_info15UnsignedIntegerIyEEEENSt3__18optionalIPKcEES9_PFNS6_12basic_stringIcNS6_11char_traitsIcEENS6_9allocatorIcEEEEPKvEPT_ENUlS9_E_8__invokeES9_, symObjAddr: 0x4680, symBinAddr: 0x10002ED1C, symSize: 0xC }
  - { offset: 0x2A8A39, size: 0x8, addend: 0x0, symName: __ZZN5hilti2rt8TypeInfoC1INS0_9type_info15UnsignedIntegerIyEEEENSt3__18optionalIPKcEES9_PFNS6_12basic_stringIcNS6_11char_traitsIcEENS6_9allocatorIcEEEEPKvEPT_ENUlS9_E_8__invokeES9_, symObjAddr: 0x4680, symBinAddr: 0x10002ED1C, symSize: 0xC }
  - { offset: 0x2A8AB5, size: 0x8, addend: 0x0, symName: __ZZN5hilti2rt8TypeInfoC1INS0_9type_info4VoidEEENSt3__18optionalIPKcEES8_PFNS5_12basic_stringIcNS5_11char_traitsIcEENS5_9allocatorIcEEEEPKvEPT_ENUlS8_E_8__invokeES8_, symObjAddr: 0x468C, symBinAddr: 0x10002ED28, symSize: 0xC }
  - { offset: 0x2A8ADF, size: 0x8, addend: 0x0, symName: __ZZN5hilti2rt8TypeInfoC1INS0_9type_info4VoidEEENSt3__18optionalIPKcEES8_PFNS5_12basic_stringIcNS5_11char_traitsIcEENS5_9allocatorIcEEEEPKvEPT_ENUlS8_E_8__invokeES8_, symObjAddr: 0x468C, symBinAddr: 0x10002ED28, symSize: 0xC }
  - { offset: 0x2B9E14, size: 0x8, addend: 0x0, symName: __ZN5hilti2rt7integer4packIjEENS0_5BytesE7SafeIntIT_NS1_6detail16SafeIntExceptionEENS0_9ByteOrderE, symObjAddr: 0xA1C, symBinAddr: 0x10002FEA8, symSize: 0x120 }
  - { offset: 0x2BA0F9, size: 0x8, addend: 0x0, symName: __ZN5hilti2rt7integer4packIyEENS0_5BytesE7SafeIntIT_NS1_6detail16SafeIntExceptionEENS0_9ByteOrderE, symObjAddr: 0xB3C, symBinAddr: 0x10002FFC8, symSize: 0x11C }
  - { offset: 0x2BA3BC, size: 0x8, addend: 0x0, symName: __ZN5hilti2rt7integer6unpackIjNS0_5BytesEEENS0_6ResultINSt3__15tupleIJ7SafeIntIT_NS1_6detail16SafeIntExceptionEET0_EEEEESC_NS0_9ByteOrderE, symObjAddr: 0x3478, symBinAddr: 0x100031124, symSize: 0x308 }
  - { offset: 0x2BBC63, size: 0x8, addend: 0x0, symName: __ZN5hilti2rt7integer6unpackIyNS0_5BytesEEENS0_6ResultINSt3__15tupleIJ7SafeIntIT_NS1_6detail16SafeIntExceptionEET0_EEEEESC_NS0_9ByteOrderE, symObjAddr: 0x3780, symBinAddr: 0x10003142C, symSize: 0x38C }
  - { offset: 0x2BD502, size: 0x8, addend: 0x0, symName: __ZN5hilti2rt7integer6unpackIjNS0_6stream4ViewEEENS0_6ResultINSt3__15tupleIJ7SafeIntIT_NS1_6detail16SafeIntExceptionEET0_EEEEESD_NS0_9ByteOrderE, symObjAddr: 0x476C, symBinAddr: 0x100031C1C, symSize: 0x3C4 }
  - { offset: 0x2C3469, size: 0x8, addend: 0x0, symName: __ZN5hilti2rt7address6unpackERKNS0_5BytesENS0_13AddressFamilyENS0_9ByteOrderE, symObjAddr: 0xD08, symBinAddr: 0x1000300E4, symSize: 0x788 }
  - { offset: 0x2C7B7D, size: 0x8, addend: 0x0, symName: __ZN5hilti2rt7address6unpackERKNS0_6stream4ViewENS0_13AddressFamilyENS0_9ByteOrderE, symObjAddr: 0x1490, symBinAddr: 0x10003086C, symSize: 0x804 }
  - { offset: 0x2CD453, size: 0x8, addend: 0x0, symName: __ZN5hilti2rt6detail3adl9to_stringERKNS0_13AddressFamilyENS2_3tagE, symObjAddr: 0x1C94, symBinAddr: 0x100031070, symSize: 0xB4 }
  - { offset: 0x2D03FB, size: 0x8, addend: 0x0, symName: __ZN5hilti2rt7Address6_parseERKNSt3__112basic_stringIcNS2_11char_traitsIcEENS2_9allocatorIcEEEE, symObjAddr: 0x0, symBinAddr: 0x10002F4C4, symSize: 0x260 }
  - { offset: 0x2D09A7, size: 0x8, addend: 0x0, symName: __ZN5hilti2rt7Address5_initE7in_addr, symObjAddr: 0x260, symBinAddr: 0x10002F724, symSize: 0x34 }
  - { offset: 0x2D0A2A, size: 0x8, addend: 0x0, symName: __ZN5hilti2rt7Address5_initE8in6_addr, symObjAddr: 0x2CC, symBinAddr: 0x10002F758, symSize: 0x40 }
  - { offset: 0x2D0A7E, size: 0x8, addend: 0x0, symName: __ZNK5hilti2rt7Address6familyEv, symObjAddr: 0x30C, symBinAddr: 0x10002F798, symSize: 0x8 }
  - { offset: 0x2D0B1D, size: 0x8, addend: 0x0, symName: __ZNK5hilti2rt7Address4maskEj, symObjAddr: 0x314, symBinAddr: 0x10002F7A0, symSize: 0x84 }
  - { offset: 0x2D13D0, size: 0x8, addend: 0x0, symName: __ZNK5hilti2rt7Address8asInAddrEv, symObjAddr: 0x398, symBinAddr: 0x10002F824, symSize: 0xA0 }
  - { offset: 0x2D1A0A, size: 0x8, addend: 0x0, symName: __ZNK5hilti2rt7AddresseqERKS1_, symObjAddr: 0x438, symBinAddr: 0x10002F8C4, symSize: 0x2C }
  - { offset: 0x2D1A15, size: 0x8, addend: 0x0, symName: __ZNK5hilti2rt7AddresseqERKS1_, symObjAddr: 0x438, symBinAddr: 0x10002F8C4, symSize: 0x2C }
  - { offset: 0x2D1CC0, size: 0x8, addend: 0x0, symName: __ZNK5hilti2rt7AddresscvNSt3__112basic_stringIcNS2_11char_traitsIcEENS2_9allocatorIcEEEEEv, symObjAddr: 0x464, symBinAddr: 0x10002F8F0, symSize: 0x22C }
  - { offset: 0x2D3046, size: 0x8, addend: 0x0, symName: __ZNK5hilti2rt7Address4packENS0_9ByteOrderE, symObjAddr: 0x690, symBinAddr: 0x10002FB1C, symSize: 0x38C }
  - { offset: 0x2D6802, size: 0x8, addend: 0x0, symName: __ZN5hilti2rt7address6unpackERKNS0_5BytesENS0_13AddressFamilyENS0_9ByteOrderE.cold.1, symObjAddr: 0x5C24, symBinAddr: 0x100058630, symSize: 0x24 }
  - { offset: 0x2DA001, size: 0x8, addend: 0x0, symName: __ZNK5hilti2rt5Bytes7extractEPhy, symObjAddr: 0x3B0C, symBinAddr: 0x1000317B8, symSize: 0xC8 }
  - { offset: 0x2DAA89, size: 0x8, addend: 0x0, symName: __ZNK5hilti2rt5Bytes3subEyy, symObjAddr: 0x3BD4, symBinAddr: 0x100031880, symSize: 0x218 }
  - { offset: 0x2DB3C2, size: 0x8, addend: 0x0, symName: __ZNKSt3__112basic_stringIcNS_11char_traitsIcEENS_9allocatorIcEEE20__throw_out_of_rangeB8ne180100Ev, symObjAddr: 0x3DEC, symBinAddr: 0x100031A98, symSize: 0x14 }
  - { offset: 0x2DB705, size: 0x8, addend: 0x0, symName: __ZNSt3__116__variant_detail12__visitation6__base12__dispatcherIJLm0EEE10__dispatchB8ne180100IOZNS0_6__dtorINS0_8__traitsIJNS_5tupleIJ7SafeIntIjN5hilti2rt7integer6detail16SafeIntExceptionEENSB_5BytesEEEENSB_6result5ErrorEEEELNS0_6_TraitE1EE9__destroyB8ne180100EvEUlRT_E_JRNS0_6__baseILSL_1EJSH_SJ_EEEEEEDcSN_DpT0_, symObjAddr: 0x45FC, symBinAddr: 0x100031AAC, symSize: 0x6C }
  - { offset: 0x2DBA6D, size: 0x8, addend: 0x0, symName: __ZNSt3__116__variant_detail12__visitation6__base12__dispatcherIJLm1EEE10__dispatchB8ne180100IOZNS0_6__dtorINS0_8__traitsIJNS_5tupleIJ7SafeIntIjN5hilti2rt7integer6detail16SafeIntExceptionEENSB_5BytesEEEENSB_6result5ErrorEEEELNS0_6_TraitE1EE9__destroyB8ne180100EvEUlRT_E_JRNS0_6__baseILSL_1EJSH_SJ_EEEEEEDcSN_DpT0_, symObjAddr: 0x4668, symBinAddr: 0x100031B18, symSize: 0x4C }
  - { offset: 0x2DBE50, size: 0x8, addend: 0x0, symName: __ZNSt3__116__variant_detail12__visitation6__base12__dispatcherIJLm0EEE10__dispatchB8ne180100IOZNS0_6__dtorINS0_8__traitsIJNS_5tupleIJ7SafeIntIyN5hilti2rt7integer6detail16SafeIntExceptionEENSB_5BytesEEEENSB_6result5ErrorEEEELNS0_6_TraitE1EE9__destroyB8ne180100EvEUlRT_E_JRNS0_6__baseILSL_1EJSH_SJ_EEEEEEDcSN_DpT0_, symObjAddr: 0x46B4, symBinAddr: 0x100031B64, symSize: 0x6C }
  - { offset: 0x2DC140, size: 0x8, addend: 0x0, symName: __ZNSt3__116__variant_detail12__visitation6__base12__dispatcherIJLm1EEE10__dispatchB8ne180100IOZNS0_6__dtorINS0_8__traitsIJNS_5tupleIJ7SafeIntIyN5hilti2rt7integer6detail16SafeIntExceptionEENSB_5BytesEEEENSB_6result5ErrorEEEELNS0_6_TraitE1EE9__destroyB8ne180100EvEUlRT_E_JRNS0_6__baseILSL_1EJSH_SJ_EEEEEEDcSN_DpT0_, symObjAddr: 0x4720, symBinAddr: 0x100031BD0, symSize: 0x4C }
  - { offset: 0x2DFAE4, size: 0x8, addend: 0x0, symName: __ZNSt3__116__variant_detail12__visitation6__base12__dispatcherIJLm0EEE10__dispatchB8ne180100IOZNS0_6__dtorINS0_8__traitsIJNS_5tupleIJ7SafeIntIjN5hilti2rt7integer6detail16SafeIntExceptionEENSB_6stream4ViewEEEENSB_6result5ErrorEEEELNS0_6_TraitE1EE9__destroyB8ne180100EvEUlRT_E_JRNS0_6__baseILSM_1EJSI_SK_EEEEEEDcSO_DpT0_, symObjAddr: 0x5B7C, symBinAddr: 0x100031FE0, symSize: 0x8 }
  - { offset: 0x2DFB1A, size: 0x8, addend: 0x0, symName: __ZNSt3__116__variant_detail12__visitation6__base12__dispatcherIJLm0EEE10__dispatchB8ne180100IOZNS0_6__dtorINS0_8__traitsIJNS_5tupleIJ7SafeIntIjN5hilti2rt7integer6detail16SafeIntExceptionEENSB_6stream4ViewEEEENSB_6result5ErrorEEEELNS0_6_TraitE1EE9__destroyB8ne180100EvEUlRT_E_JRNS0_6__baseILSM_1EJSI_SK_EEEEEEDcSO_DpT0_, symObjAddr: 0x5B7C, symBinAddr: 0x100031FE0, symSize: 0x8 }
  - { offset: 0x2DFB3F, size: 0x8, addend: 0x0, symName: __ZNSt3__116__variant_detail12__visitation6__base12__dispatcherIJLm0EEE10__dispatchB8ne180100IOZNS0_6__dtorINS0_8__traitsIJNS_5tupleIJ7SafeIntIjN5hilti2rt7integer6detail16SafeIntExceptionEENSB_6stream4ViewEEEENSB_6result5ErrorEEEELNS0_6_TraitE1EE9__destroyB8ne180100EvEUlRT_E_JRNS0_6__baseILSM_1EJSI_SK_EEEEEEDcSO_DpT0_, symObjAddr: 0x5B7C, symBinAddr: 0x100031FE0, symSize: 0x8 }
  - { offset: 0x2DFB64, size: 0x8, addend: 0x0, symName: __ZNSt3__116__variant_detail12__visitation6__base12__dispatcherIJLm0EEE10__dispatchB8ne180100IOZNS0_6__dtorINS0_8__traitsIJNS_5tupleIJ7SafeIntIjN5hilti2rt7integer6detail16SafeIntExceptionEENSB_6stream4ViewEEEENSB_6result5ErrorEEEELNS0_6_TraitE1EE9__destroyB8ne180100EvEUlRT_E_JRNS0_6__baseILSM_1EJSI_SK_EEEEEEDcSO_DpT0_, symObjAddr: 0x5B7C, symBinAddr: 0x100031FE0, symSize: 0x8 }
  - { offset: 0x2DFB80, size: 0x8, addend: 0x0, symName: __ZNSt3__116__variant_detail12__visitation6__base12__dispatcherIJLm0EEE10__dispatchB8ne180100IOZNS0_6__dtorINS0_8__traitsIJNS_5tupleIJ7SafeIntIjN5hilti2rt7integer6detail16SafeIntExceptionEENSB_6stream4ViewEEEENSB_6result5ErrorEEEELNS0_6_TraitE1EE9__destroyB8ne180100EvEUlRT_E_JRNS0_6__baseILSM_1EJSI_SK_EEEEEEDcSO_DpT0_, symObjAddr: 0x5B7C, symBinAddr: 0x100031FE0, symSize: 0x8 }
  - { offset: 0x2DFB9C, size: 0x8, addend: 0x0, symName: __ZNSt3__116__variant_detail12__visitation6__base12__dispatcherIJLm0EEE10__dispatchB8ne180100IOZNS0_6__dtorINS0_8__traitsIJNS_5tupleIJ7SafeIntIjN5hilti2rt7integer6detail16SafeIntExceptionEENSB_6stream4ViewEEEENSB_6result5ErrorEEEELNS0_6_TraitE1EE9__destroyB8ne180100EvEUlRT_E_JRNS0_6__baseILSM_1EJSI_SK_EEEEEEDcSO_DpT0_, symObjAddr: 0x5B7C, symBinAddr: 0x100031FE0, symSize: 0x8 }
  - { offset: 0x2DFBB8, size: 0x8, addend: 0x0, symName: __ZNSt3__116__variant_detail12__visitation6__base12__dispatcherIJLm0EEE10__dispatchB8ne180100IOZNS0_6__dtorINS0_8__traitsIJNS_5tupleIJ7SafeIntIjN5hilti2rt7integer6detail16SafeIntExceptionEENSB_6stream4ViewEEEENSB_6result5ErrorEEEELNS0_6_TraitE1EE9__destroyB8ne180100EvEUlRT_E_JRNS0_6__baseILSM_1EJSI_SK_EEEEEEDcSO_DpT0_, symObjAddr: 0x5B7C, symBinAddr: 0x100031FE0, symSize: 0x8 }
  - { offset: 0x2DFBD4, size: 0x8, addend: 0x0, symName: __ZNSt3__116__variant_detail12__visitation6__base12__dispatcherIJLm0EEE10__dispatchB8ne180100IOZNS0_6__dtorINS0_8__traitsIJNS_5tupleIJ7SafeIntIjN5hilti2rt7integer6detail16SafeIntExceptionEENSB_6stream4ViewEEEENSB_6result5ErrorEEEELNS0_6_TraitE1EE9__destroyB8ne180100EvEUlRT_E_JRNS0_6__baseILSM_1EJSI_SK_EEEEEEDcSO_DpT0_, symObjAddr: 0x5B7C, symBinAddr: 0x100031FE0, symSize: 0x8 }
  - { offset: 0x2DFBF0, size: 0x8, addend: 0x0, symName: __ZNSt3__116__variant_detail12__visitation6__base12__dispatcherIJLm0EEE10__dispatchB8ne180100IOZNS0_6__dtorINS0_8__traitsIJNS_5tupleIJ7SafeIntIjN5hilti2rt7integer6detail16SafeIntExceptionEENSB_6stream4ViewEEEENSB_6result5ErrorEEEELNS0_6_TraitE1EE9__destroyB8ne180100EvEUlRT_E_JRNS0_6__baseILSM_1EJSI_SK_EEEEEEDcSO_DpT0_, symObjAddr: 0x5B7C, symBinAddr: 0x100031FE0, symSize: 0x8 }
  - { offset: 0x2DFC9D, size: 0x8, addend: 0x0, symName: __ZNSt3__116__variant_detail12__visitation6__base12__dispatcherIJLm1EEE10__dispatchB8ne180100IOZNS0_6__dtorINS0_8__traitsIJNS_5tupleIJ7SafeIntIjN5hilti2rt7integer6detail16SafeIntExceptionEENSB_6stream4ViewEEEENSB_6result5ErrorEEEELNS0_6_TraitE1EE9__destroyB8ne180100EvEUlRT_E_JRNS0_6__baseILSM_1EJSI_SK_EEEEEEDcSO_DpT0_, symObjAddr: 0x5B84, symBinAddr: 0x100031FE8, symSize: 0x4C }
  - { offset: 0x2DFF9D, size: 0x8, addend: 0x0, symName: _OUTLINED_FUNCTION_0, symObjAddr: 0x5C90, symBinAddr: 0x100032034, symSize: 0x10 }
  - { offset: 0x2DFFB5, size: 0x8, addend: 0x0, symName: _OUTLINED_FUNCTION_1, symObjAddr: 0x5CA0, symBinAddr: 0x100032044, symSize: 0x10 }
  - { offset: 0x2DFFCD, size: 0x8, addend: 0x0, symName: _OUTLINED_FUNCTION_2, symObjAddr: 0x5CB0, symBinAddr: 0x100032054, symSize: 0x8 }
  - { offset: 0x2DFFE5, size: 0x8, addend: 0x0, symName: _OUTLINED_FUNCTION_3, symObjAddr: 0x5CB8, symBinAddr: 0x10003205C, symSize: 0x8 }
  - { offset: 0x2E211D, size: 0x8, addend: 0x0, symName: __ZN5hilti2rt6detail3adl9to_stringERKNS0_5BytesENS2_3tagE, symObjAddr: 0x2800, symBinAddr: 0x100034734, symSize: 0x98 }
  - { offset: 0x2E2461, size: 0x8, addend: 0x0, symName: __ZN5hilti2rt6detail3adl9to_stringERKNS0_5bytes4SideENS2_3tagE, symObjAddr: 0x2898, symBinAddr: 0x1000347CC, symSize: 0xAC }
  - { offset: 0x2E38AA, size: 0x8, addend: 0x0, symName: __ZN5hilti2rt5byteseqERKNS1_12SafeIteratorES4_, symObjAddr: 0x5C8, symBinAddr: 0x10003262C, symSize: 0x13C }
  - { offset: 0x2E49C2, size: 0x8, addend: 0x0, symName: __ZN5hilti2rt6atoi_nINSt3__111__wrap_iterIPKcEExEET_S7_S7_hPT0_, symObjAddr: 0x1DAC, symBinAddr: 0x100033D50, symSize: 0x1BC }
  - { offset: 0x2E4DA5, size: 0x8, addend: 0x0, symName: __ZN4utf88internal6appendINSt3__120back_insert_iteratorINS2_12basic_stringIcNS2_11char_traitsIcEENS2_9allocatorIcEEEEEEcEET_DiSB_, symObjAddr: 0x2AF4, symBinAddr: 0x1000348C4, symSize: 0xC4 }
  - { offset: 0x2E4E47, size: 0x8, addend: 0x0, symName: __ZN4utf88internal8append16INSt3__120back_insert_iteratorINS2_12basic_stringIDsNS2_11char_traitsIDsEENS2_9allocatorIDsEEEEEEDsEET_DiSB_, symObjAddr: 0x2C40, symBinAddr: 0x100034988, symSize: 0x1E4 }
  - { offset: 0x2E5368, size: 0x8, addend: 0x0, symName: __ZN4utf88internal13validate_nextINSt3__111__wrap_iterIPKcEEEENS0_9utf_errorERT_S8_RDi, symObjAddr: 0x4E58, symBinAddr: 0x100034ED4, symSize: 0x208 }
  - { offset: 0x2E53F4, size: 0x8, addend: 0x0, symName: __ZN4utf88internal13validate_nextINSt3__111__wrap_iterIPKcEEEENS0_9utf_errorERT_S8_RDi, symObjAddr: 0x4E58, symBinAddr: 0x100034ED4, symSize: 0x208 }
  - { offset: 0x2E540F, size: 0x8, addend: 0x0, symName: __ZN4utf88internal13validate_nextINSt3__111__wrap_iterIPKcEEEENS0_9utf_errorERT_S8_RDi, symObjAddr: 0x4E58, symBinAddr: 0x100034ED4, symSize: 0x208 }
  - { offset: 0x2E5BEE, size: 0x8, addend: 0x0, symName: __ZN4utf84nextINSt3__111__wrap_iterIPKcEEEEDiRT_S6_, symObjAddr: 0x147C, symBinAddr: 0x1000334E0, symSize: 0xE8 }
  - { offset: 0x2E5D55, size: 0x8, addend: 0x0, symName: __ZN4utf88utf16to8INSt3__111__wrap_iterIPKDsEENS1_20back_insert_iteratorINS1_12basic_stringIcNS1_11char_traitsIcEENS1_9allocatorIcEEEEEEEET0_T_SF_SE_, symObjAddr: 0x2F7C, symBinAddr: 0x100034CB0, symSize: 0x128 }
  - { offset: 0x2FCDBA, size: 0x8, addend: 0x0, symName: __ZNK5hilti2rt5Bytes4findERKS1_RKNS0_5bytes12SafeIteratorE, symObjAddr: 0x0, symBinAddr: 0x100032064, symSize: 0x5C8 }
  - { offset: 0x2FECEC, size: 0x8, addend: 0x0, symName: __ZNK5hilti2rt5bytes12SafeIteratordeEv, symObjAddr: 0x704, symBinAddr: 0x100032768, symSize: 0x1DC }
  - { offset: 0x2FFCB2, size: 0x8, addend: 0x0, symName: __ZNK5hilti2rt5Bytes6decodeENS0_7unicode7CharsetENS2_19DecodeErrorStrategyE, symObjAddr: 0x8E0, symBinAddr: 0x100032944, symSize: 0xB9C }
  - { offset: 0x3028B5, size: 0x8, addend: 0x0, symName: __ZNK5hilti2rt5Bytes5stripERKS1_NS0_5bytes4SideE, symObjAddr: 0x1624, symBinAddr: 0x1000335C8, symSize: 0x314 }
  - { offset: 0x303514, size: 0x8, addend: 0x0, symName: __ZNK5hilti2rt5Bytes5stripENS0_5bytes4SideE, symObjAddr: 0x1938, symBinAddr: 0x1000338DC, symSize: 0x2AC }
  - { offset: 0x30353B, size: 0x8, addend: 0x0, symName: __ZNK5hilti2rt5Bytes5stripENS0_5bytes4SideE, symObjAddr: 0x1938, symBinAddr: 0x1000338DC, symSize: 0x2AC }
  - { offset: 0x3044CA, size: 0x8, addend: 0x0, symName: __ZNK5hilti2rt5Bytes5upperENS0_7unicode7CharsetENS2_19DecodeErrorStrategyE, symObjAddr: 0x1BE4, symBinAddr: 0x100033B88, symSize: 0x100 }
  - { offset: 0x3044D5, size: 0x8, addend: 0x0, symName: __ZNK5hilti2rt5Bytes5upperENS0_7unicode7CharsetENS2_19DecodeErrorStrategyE, symObjAddr: 0x1BE4, symBinAddr: 0x100033B88, symSize: 0x100 }
  - { offset: 0x304A84, size: 0x8, addend: 0x0, symName: __ZNK5hilti2rt5Bytes5toIntEy, symObjAddr: 0x1CE4, symBinAddr: 0x100033C88, symSize: 0xC8 }
  - { offset: 0x304C28, size: 0x8, addend: 0x0, symName: __ZN5hilti2rt10OutOfRangeC1ENSt3__117basic_string_viewIcNS2_11char_traitsIcEEEE, symObjAddr: 0x50A8, symBinAddr: 0x1000350F4, symSize: 0x38 }
  - { offset: 0x304CA3, size: 0x8, addend: 0x0, symName: __ZNK5hilti2rt5Bytes6toUIntEy, symObjAddr: 0x1F68, symBinAddr: 0x100033F0C, symSize: 0xD0 }
  - { offset: 0x304E60, size: 0x8, addend: 0x0, symName: __ZNK5hilti2rt5Bytes5toIntENS0_9ByteOrderE, symObjAddr: 0x2038, symBinAddr: 0x100033FDC, symSize: 0x60 }
  - { offset: 0x304F71, size: 0x8, addend: 0x0, symName: __ZNK5hilti2rt5Bytes6toUIntENS0_9ByteOrderE, symObjAddr: 0x2098, symBinAddr: 0x10003403C, symSize: 0x24C }
  - { offset: 0x304F7C, size: 0x8, addend: 0x0, symName: __ZNK5hilti2rt5Bytes6toUIntENS0_9ByteOrderE, symObjAddr: 0x2098, symBinAddr: 0x10003403C, symSize: 0x24C }
  - { offset: 0x305C5B, size: 0x8, addend: 0x0, symName: __ZNK5hilti2rt5Bytes6toRealEv, symObjAddr: 0x2354, symBinAddr: 0x100034288, symSize: 0x1BC }
  - { offset: 0x30603F, size: 0x8, addend: 0x0, symName: __ZNK5hilti2rt5Bytes5lowerENS0_7unicode7CharsetENS2_19DecodeErrorStrategyE, symObjAddr: 0x2510, symBinAddr: 0x100034444, symSize: 0x100 }
  - { offset: 0x306F99, size: 0x8, addend: 0x0, symName: __ZNK5hilti2rt5Bytes5matchERKNS0_6RegExpEj, symObjAddr: 0x2610, symBinAddr: 0x100034544, symSize: 0xF8 }
  - { offset: 0x307947, size: 0x8, addend: 0x0, symName: __ZN5hilti2rt6VectorINS0_5BytesENSt3__19allocatorIS2_EEED2Ev, symObjAddr: 0x30C8, symBinAddr: 0x100034DE4, symSize: 0xF0 }
  - { offset: 0x307E5E, size: 0x8, addend: 0x0, symName: __ZN5hilti2rt5Bytes6appendERKNS0_6stream4ViewE, symObjAddr: 0x2708, symBinAddr: 0x10003463C, symSize: 0xF8 }
  - { offset: 0x30818A, size: 0x8, addend: 0x0, symName: __ZN5hilti2rt6detail3adl9to_stringERKNS0_5BytesENS2_3tagE, symObjAddr: 0x2800, symBinAddr: 0x100034734, symSize: 0x98 }
  - { offset: 0x3081CD, size: 0x8, addend: 0x0, symName: __ZNSt3__120__shared_ptr_emplaceIPKNS_12basic_stringIcNS_11char_traitsIcEENS_9allocatorIcEEEENS4_IS8_EEED1Ev, symObjAddr: 0x29CC, symBinAddr: 0x100034878, symSize: 0x14 }
  - { offset: 0x3081EF, size: 0x8, addend: 0x0, symName: __ZNSt3__120__shared_ptr_emplaceIPKNS_12basic_stringIcNS_11char_traitsIcEENS_9allocatorIcEEEENS4_IS8_EEED1Ev, symObjAddr: 0x29CC, symBinAddr: 0x100034878, symSize: 0x14 }
  - { offset: 0x308225, size: 0x8, addend: 0x0, symName: __ZNSt3__120__shared_ptr_emplaceIPKNS_12basic_stringIcNS_11char_traitsIcEENS_9allocatorIcEEEENS4_IS8_EEED0Ev, symObjAddr: 0x29E0, symBinAddr: 0x10003488C, symSize: 0x24 }
  - { offset: 0x308288, size: 0x8, addend: 0x0, symName: __ZNSt3__120__shared_ptr_emplaceIPKNS_12basic_stringIcNS_11char_traitsIcEENS_9allocatorIcEEEENS4_IS8_EEE16__on_zero_sharedEv, symObjAddr: 0x2A04, symBinAddr: 0x1000348B0, symSize: 0x4 }
  - { offset: 0x308305, size: 0x8, addend: 0x0, symName: __ZNSt3__120__shared_ptr_emplaceIPKNS_12basic_stringIcNS_11char_traitsIcEENS_9allocatorIcEEEENS4_IS8_EEE21__on_zero_shared_weakEv, symObjAddr: 0x2A08, symBinAddr: 0x1000348B4, symSize: 0x4 }
  - { offset: 0x308339, size: 0x8, addend: 0x0, symName: __ZNSt3__120__shared_ptr_emplaceIPKNS_12basic_stringIcNS_11char_traitsIcEENS_9allocatorIcEEEENS4_IS8_EEE21__on_zero_shared_weakEv, symObjAddr: 0x2A08, symBinAddr: 0x1000348B4, symSize: 0x4 }
  - { offset: 0x30835B, size: 0x8, addend: 0x0, symName: __ZNSt3__120__shared_ptr_emplaceIPKNS_12basic_stringIcNS_11char_traitsIcEENS_9allocatorIcEEEENS4_IS8_EEE21__on_zero_shared_weakEv, symObjAddr: 0x2A08, symBinAddr: 0x1000348B4, symSize: 0x4 }
  - { offset: 0x30837D, size: 0x8, addend: 0x0, symName: __ZNSt3__120__shared_ptr_emplaceIPKNS_12basic_stringIcNS_11char_traitsIcEENS_9allocatorIcEEEENS4_IS8_EEE21__on_zero_shared_weakEv, symObjAddr: 0x2A08, symBinAddr: 0x1000348B4, symSize: 0x4 }
  - { offset: 0x3083A8, size: 0x8, addend: 0x0, symName: __ZNSt3__120__shared_ptr_emplaceIPKNS_12basic_stringIcNS_11char_traitsIcEENS_9allocatorIcEEEENS4_IS8_EEE21__on_zero_shared_weakEv, symObjAddr: 0x2A08, symBinAddr: 0x1000348B4, symSize: 0x4 }
  - { offset: 0x3083CE, size: 0x8, addend: 0x0, symName: __ZNSt3__120__shared_ptr_emplaceIPKNS_12basic_stringIcNS_11char_traitsIcEENS_9allocatorIcEEEENS4_IS8_EEE21__on_zero_shared_weakEv, symObjAddr: 0x2A08, symBinAddr: 0x1000348B4, symSize: 0x4 }
  - { offset: 0x3084A5, size: 0x8, addend: 0x0, symName: __ZNK4utf818invalid_code_point4whatEv, symObjAddr: 0x2AE8, symBinAddr: 0x1000348B8, symSize: 0xC }
  - { offset: 0x30868A, size: 0x8, addend: 0x0, symName: __ZNSt3__112basic_stringIDsNS_11char_traitsIDsEENS_9allocatorIDsEEE9__grow_byEmmmmmm, symObjAddr: 0x2E24, symBinAddr: 0x100034B6C, symSize: 0x144 }
  - { offset: 0x308EA7, size: 0x8, addend: 0x0, symName: __ZN4utf88utf16to8INSt3__111__wrap_iterIPKDsEENS1_20back_insert_iteratorINS1_12basic_stringIcNS1_11char_traitsIcEENS1_9allocatorIcEEEEEEEET0_T_SF_SE_, symObjAddr: 0x2F7C, symBinAddr: 0x100034CB0, symSize: 0x128 }
  - { offset: 0x308F47, size: 0x8, addend: 0x0, symName: __ZNK4utf813invalid_utf164whatEv, symObjAddr: 0x30BC, symBinAddr: 0x100034DD8, symSize: 0xC }
  - { offset: 0x309AF6, size: 0x8, addend: 0x0, symName: __ZNK4utf815not_enough_room4whatEv, symObjAddr: 0x507C, symBinAddr: 0x1000350DC, symSize: 0xC }
  - { offset: 0x309B1D, size: 0x8, addend: 0x0, symName: __ZNK4utf812invalid_utf84whatEv, symObjAddr: 0x509C, symBinAddr: 0x1000350E8, symSize: 0xC }
  - { offset: 0x30B98B, size: 0x8, addend: 0x0, symName: __ZN5hilti2rt7integer6flip16Et, symObjAddr: 0x0, symBinAddr: 0x10003512C, symSize: 0x8 }
  - { offset: 0x30EA2D, size: 0x8, addend: 0x0, symName: __ZN5hilti2rt7integer6flip16Et, symObjAddr: 0x0, symBinAddr: 0x10003512C, symSize: 0x8 }
  - { offset: 0x30EA5D, size: 0x8, addend: 0x0, symName: __ZN5hilti2rt7integer6flip16Et, symObjAddr: 0x0, symBinAddr: 0x10003512C, symSize: 0x8 }
  - { offset: 0x30EA7F, size: 0x8, addend: 0x0, symName: __ZN5hilti2rt7integer6flip32Ej, symObjAddr: 0x8, symBinAddr: 0x100035134, symSize: 0x8 }
  - { offset: 0x30EAAF, size: 0x8, addend: 0x0, symName: __ZN5hilti2rt7integer6flip32Ej, symObjAddr: 0x8, symBinAddr: 0x100035134, symSize: 0x8 }
  - { offset: 0x30EAD1, size: 0x8, addend: 0x0, symName: __ZN5hilti2rt7integer6flip64Ey, symObjAddr: 0x10, symBinAddr: 0x10003513C, symSize: 0x8 }
  - { offset: 0x30EAF1, size: 0x8, addend: 0x0, symName: __ZN5hilti2rt7integer6flip64Ey, symObjAddr: 0x10, symBinAddr: 0x10003513C, symSize: 0x8 }
  - { offset: 0x30EB2F, size: 0x8, addend: 0x0, symName: __ZN5hilti2rt7integer6hton64Ey, symObjAddr: 0x18, symBinAddr: 0x100035144, symSize: 0x8 }
  - { offset: 0x30EB5F, size: 0x8, addend: 0x0, symName: __ZN5hilti2rt7integer6hton64Ey, symObjAddr: 0x18, symBinAddr: 0x100035144, symSize: 0x8 }
  - { offset: 0x30EB7A, size: 0x8, addend: 0x0, symName: __ZN5hilti2rt7integer6hton64Ey, symObjAddr: 0x18, symBinAddr: 0x100035144, symSize: 0x8 }
  - { offset: 0x30EB9D, size: 0x8, addend: 0x0, symName: __ZN5hilti2rt7integer6hton32Ej, symObjAddr: 0x20, symBinAddr: 0x10003514C, symSize: 0x8 }
  - { offset: 0x30EBCB, size: 0x8, addend: 0x0, symName: __ZN5hilti2rt7integer6hton16Et, symObjAddr: 0x28, symBinAddr: 0x100035154, symSize: 0x8 }
  - { offset: 0x30EBF9, size: 0x8, addend: 0x0, symName: __ZN5hilti2rt7integer6ntoh64Ey, symObjAddr: 0x30, symBinAddr: 0x10003515C, symSize: 0x8 }
  - { offset: 0x30EC29, size: 0x8, addend: 0x0, symName: __ZN5hilti2rt7integer6ntoh64Ey, symObjAddr: 0x30, symBinAddr: 0x10003515C, symSize: 0x8 }
  - { offset: 0x30EC44, size: 0x8, addend: 0x0, symName: __ZN5hilti2rt7integer6ntoh64Ey, symObjAddr: 0x30, symBinAddr: 0x10003515C, symSize: 0x8 }
  - { offset: 0x30EC67, size: 0x8, addend: 0x0, symName: __ZN5hilti2rt7integer6ntoh32Ej, symObjAddr: 0x38, symBinAddr: 0x100035164, symSize: 0x8 }
  - { offset: 0x30EC95, size: 0x8, addend: 0x0, symName: __ZN5hilti2rt7integer6ntoh16Et, symObjAddr: 0x40, symBinAddr: 0x10003516C, symSize: 0x8 }
  - { offset: 0x30ED0E, size: 0x8, addend: 0x0, symName: __ZN5hilti2rt6detail3adl9to_stringERKNS0_7integer8BitOrderENS2_3tagE, symObjAddr: 0x48, symBinAddr: 0x100035174, symSize: 0x8C }
  - { offset: 0x311874, size: 0x8, addend: 0x0, symName: __ZN5hilti2rt6detail3adl9to_stringERKNS0_8ProtocolENS2_3tagE, symObjAddr: 0x408, symBinAddr: 0x1000355C0, symSize: 0x90 }
  - { offset: 0x3118AA, size: 0x8, addend: 0x0, symName: __ZN5hilti2rt6detail3adl9to_stringERKNS0_8ProtocolENS2_3tagE, symObjAddr: 0x408, symBinAddr: 0x1000355C0, symSize: 0x90 }
  - { offset: 0x31874B, size: 0x8, addend: 0x0, symName: __ZN10tinyformat6formatIJtNSt3__112basic_stringIcNS1_11char_traitsIcEENS1_9allocatorIcEEEEEEES7_PKcDpRKT_, symObjAddr: 0x520, symBinAddr: 0x100035650, symSize: 0x1D0 }
  - { offset: 0x319098, size: 0x8, addend: 0x0, symName: __ZN5hilti2rt4Port6_parseERKNSt3__112basic_stringIcNS2_11char_traitsIcEENS2_9allocatorIcEEEE, symObjAddr: 0x0, symBinAddr: 0x100035200, symSize: 0x31C }
  - { offset: 0x319A52, size: 0x8, addend: 0x0, symName: __ZNK5hilti2rt4PortcvNSt3__112basic_stringIcNS2_11char_traitsIcEENS2_9allocatorIcEEEEEv, symObjAddr: 0x364, symBinAddr: 0x10003551C, symSize: 0xA4 }
  - { offset: 0x31C758, size: 0x8, addend: 0x0, symName: __ZN5hilti2rt8optional6detail11throw_unsetEv, symObjAddr: 0x0, symBinAddr: 0x100035820, symSize: 0x34 }
  - { offset: 0x31CAA6, size: 0x8, addend: 0x0, symName: __ZN5hilti2rt8optional6detail11throw_unsetEv, symObjAddr: 0x0, symBinAddr: 0x100035820, symSize: 0x34 }
  - { offset: 0x31CAF9, size: 0x8, addend: 0x0, symName: __ZN5hilti2rt8optional6detail20throw_unset_optionalEv, symObjAddr: 0x38, symBinAddr: 0x100035854, symSize: 0x54 }
  - { offset: 0x31FA8C, size: 0x8, addend: 0x0, symName: __ZN5hilti2rt13UnsetOptionalC1ENSt3__117basic_string_viewIcNS2_11char_traitsIcEEEE, symObjAddr: 0x8C, symBinAddr: 0x1000358A8, symSize: 0x38 }
  - { offset: 0x3344FA, size: 0x8, addend: 0x0, symName: __ZN5hilti2rt4real4packEdNS1_4TypeENS0_9ByteOrderE, symObjAddr: 0x0, symBinAddr: 0x1000358E0, symSize: 0x88 }
  - { offset: 0x33464C, size: 0x8, addend: 0x0, symName: __ZN5hilti2rt4real6unpackERKNS0_5BytesENS1_4TypeENS0_9ByteOrderE, symObjAddr: 0x2FC, symBinAddr: 0x100035968, symSize: 0x518 }
  - { offset: 0x337B73, size: 0x8, addend: 0x0, symName: __ZN5hilti2rt4real6unpackERKNS0_6stream4ViewENS1_4TypeENS0_9ByteOrderE, symObjAddr: 0x814, symBinAddr: 0x100035E80, symSize: 0x5C4 }
  - { offset: 0x33C50F, size: 0x8, addend: 0x0, symName: __ZN5hilti2rt6detail3adl9to_stringEdNS2_3tagE, symObjAddr: 0xDD8, symBinAddr: 0x100036444, symSize: 0x2C }
  - { offset: 0x33C585, size: 0x8, addend: 0x0, symName: __ZN5hilti2rt6detail3adl9to_stringERKNS0_4real4TypeENS2_3tagE, symObjAddr: 0xE04, symBinAddr: 0x100036470, symSize: 0xB4 }
  - { offset: 0x34137A, size: 0x8, addend: 0x0, symName: __ZN5hilti2rt4real6unpackERKNS0_5BytesENS1_4TypeENS0_9ByteOrderE.cold.1, symObjAddr: 0x4FF4, symBinAddr: 0x100058654, symSize: 0x34 }
  - { offset: 0x34B61C, size: 0x8, addend: 0x0, symName: __ZN5hilti2rt9reference6detail10throw_nullEv, symObjAddr: 0x0, symBinAddr: 0x100036524, symSize: 0x54 }
  - { offset: 0x34B936, size: 0x8, addend: 0x0, symName: __ZN5hilti2rt9reference6detail10throw_nullEv, symObjAddr: 0x0, symBinAddr: 0x100036524, symSize: 0x54 }
  - { offset: 0x34E8CC, size: 0x8, addend: 0x0, symName: __ZN5hilti2rt13NullReferenceC1ENSt3__117basic_string_viewIcNS2_11char_traitsIcEEEE, symObjAddr: 0x54, symBinAddr: 0x100036578, symSize: 0x38 }
  - { offset: 0x350DBA, size: 0x8, addend: 0x0, symName: __ZN5hilti2rt6regexplsERNSt3__113basic_ostreamIcNS2_11char_traitsIcEEEERKNS1_7PatternE, symObjAddr: 0x75AC, symBinAddr: 0x10003ABF4, symSize: 0x120 }
  - { offset: 0x352835, size: 0x8, addend: 0x0, symName: __ZN5hilti2rt5bytesmiERKNS1_12SafeIteratorES4_, symObjAddr: 0x6794, symBinAddr: 0x10003A33C, symSize: 0x144 }
  - { offset: 0x3531D4, size: 0x8, addend: 0x0, symName: __ZN5hilti2rt6detail3adl9to_stringERKNS0_6RegExpENS2_3tagE, symObjAddr: 0x3124, symBinAddr: 0x1000394B4, symSize: 0x3DC }
  - { offset: 0x35526E, size: 0x8, addend: 0x0, symName: __ZN5hilti2rt4joinINSt3__16vectorINS2_12basic_stringIcNS2_11char_traitsIcEENS2_9allocatorIcEEEENS7_IS9_EEEEEES9_RKT_RKS9_, symObjAddr: 0x2234, symBinAddr: 0x100038624, symSize: 0x1C4 }
  - { offset: 0x36E1E3, size: 0x8, addend: 0x0, symName: __ZN5hilti2rt6regexp6detail14CompiledRegExp11_compileOneENS1_7PatternEi, symObjAddr: 0x1ADC, symBinAddr: 0x100037ECC, symSize: 0x1F0 }
  - { offset: 0x36E20B, size: 0x8, addend: 0x0, symName: __ZZN5hilti2rt6regexp6detail14CompiledRegExp11_compileOneENS1_7PatternEiE3err, symObjAddr: 0x151016, symBinAddr: 0x1000BC628, symSize: 0x0 }
  - { offset: 0x371B05, size: 0x8, addend: 0x0, symName: __ZN10tinyformat6detail15formatTruncatedIN5hilti2rt6regexp7PatternEEEvRNSt3__113basic_ostreamIcNS6_11char_traitsIcEEEERKT_i, symObjAddr: 0x73AC, symBinAddr: 0x10003A9F4, symSize: 0x200 }
  - { offset: 0x372109, size: 0x8, addend: 0x0, symName: __ZN10tinyformat6formatIJN5hilti2rt6regexp7PatternEA256_cEEENSt3__112basic_stringIcNS6_11char_traitsIcEENS6_9allocatorIcEEEEPKcDpRKT_, symObjAddr: 0x71C0, symBinAddr: 0x10003A808, symSize: 0x1D0 }
  - { offset: 0x372860, size: 0x8, addend: 0x0, symName: __ZN10tinyformat6formatIJNSt3__112basic_stringIcNS1_11char_traitsIcEENS1_9allocatorIcEEEEPKcS7_EEES7_S9_DpRKT_, symObjAddr: 0x590C, symBinAddr: 0x100039A24, symSize: 0x1DC }
  - { offset: 0x372D5A, size: 0x8, addend: 0x0, symName: __ZN10tinyformat6formatIJNSt3__112basic_stringIcNS1_11char_traitsIcEENS1_9allocatorIcEEEES7_EEES7_PKcDpRKT_, symObjAddr: 0x881C, symBinAddr: 0x10003B86C, symSize: 0x1C0 }
  - { offset: 0x374567, size: 0x8, addend: 0x0, symName: __ZN5hilti2rt6regexp10MatchStateC2ERKNS0_6RegExpE, symObjAddr: 0x0, symBinAddr: 0x1000365B0, symSize: 0x1C8 }
  - { offset: 0x374AC1, size: 0x8, addend: 0x0, symName: __ZNSt3__110unique_ptrIN5hilti2rt6regexp10MatchState5PimplENS_14default_deleteIS5_EEED1B8ne180100Ev, symObjAddr: 0x200, symBinAddr: 0x1000367B0, symSize: 0x78 }
  - { offset: 0x374C27, size: 0x8, addend: 0x0, symName: __ZN5hilti2rt6regexp10MatchStateC2ERKNS0_6RegExpE.cold.1, symObjAddr: 0x89DC, symBinAddr: 0x100058688, symSize: 0x2C }
  - { offset: 0x374D3A, size: 0x8, addend: 0x0, symName: __ZN5hilti2rt12PatternErrorC1ENSt3__117basic_string_viewIcNS2_11char_traitsIcEEEE, symObjAddr: 0x1C8, symBinAddr: 0x100036778, symSize: 0x38 }
  - { offset: 0x374DC1, size: 0x8, addend: 0x0, symName: __ZN5hilti2rt6regexp10MatchStateC1ERKNS0_6RegExpE, symObjAddr: 0x278, symBinAddr: 0x100036828, symSize: 0x4 }
  - { offset: 0x374DEB, size: 0x8, addend: 0x0, symName: __ZN5hilti2rt6regexp10MatchStateC1ERKNS0_6RegExpE, symObjAddr: 0x278, symBinAddr: 0x100036828, symSize: 0x4 }
  - { offset: 0x374EBB, size: 0x8, addend: 0x0, symName: __ZN5hilti2rt6regexp10MatchStateC2ERKS2_, symObjAddr: 0x27C, symBinAddr: 0x10003682C, symSize: 0x1B8 }
  - { offset: 0x375403, size: 0x8, addend: 0x0, symName: __ZN5hilti2rt6regexp10MatchStateC1ERKS2_, symObjAddr: 0x46C, symBinAddr: 0x1000369E4, symSize: 0x4 }
  - { offset: 0x37543F, size: 0x8, addend: 0x0, symName: __ZN5hilti2rt6regexp10MatchStateC1ERKS2_, symObjAddr: 0x46C, symBinAddr: 0x1000369E4, symSize: 0x4 }
  - { offset: 0x375459, size: 0x8, addend: 0x0, symName: __ZN5hilti2rt6regexp10MatchStateaSERKS2_, symObjAddr: 0x470, symBinAddr: 0x1000369E8, symSize: 0x15C }
  - { offset: 0x375811, size: 0x8, addend: 0x0, symName: __ZN5hilti2rt6regexp10MatchStateC2Ev, symObjAddr: 0x5CC, symBinAddr: 0x100036B44, symSize: 0x8 }
  - { offset: 0x375833, size: 0x8, addend: 0x0, symName: __ZN5hilti2rt6regexp10MatchStateC2Ev, symObjAddr: 0x5CC, symBinAddr: 0x100036B44, symSize: 0x8 }
  - { offset: 0x37584E, size: 0x8, addend: 0x0, symName: __ZN5hilti2rt6regexp10MatchStateC2Ev, symObjAddr: 0x5CC, symBinAddr: 0x100036B44, symSize: 0x8 }
  - { offset: 0x375869, size: 0x8, addend: 0x0, symName: __ZN5hilti2rt6regexp10MatchStateC2Ev, symObjAddr: 0x5CC, symBinAddr: 0x100036B44, symSize: 0x8 }
  - { offset: 0x375884, size: 0x8, addend: 0x0, symName: __ZN5hilti2rt6regexp10MatchStateC2Ev, symObjAddr: 0x5CC, symBinAddr: 0x100036B44, symSize: 0x8 }
  - { offset: 0x37589F, size: 0x8, addend: 0x0, symName: __ZN5hilti2rt6regexp10MatchStateC2Ev, symObjAddr: 0x5CC, symBinAddr: 0x100036B44, symSize: 0x8 }
  - { offset: 0x3758DF, size: 0x8, addend: 0x0, symName: __ZN5hilti2rt6regexp10MatchStateC1Ev, symObjAddr: 0x5D4, symBinAddr: 0x100036B4C, symSize: 0x8 }
  - { offset: 0x37590C, size: 0x8, addend: 0x0, symName: __ZN5hilti2rt6regexp10MatchStateC1Ev, symObjAddr: 0x5D4, symBinAddr: 0x100036B4C, symSize: 0x8 }
  - { offset: 0x375927, size: 0x8, addend: 0x0, symName: __ZN5hilti2rt6regexp10MatchStateC1Ev, symObjAddr: 0x5D4, symBinAddr: 0x100036B4C, symSize: 0x8 }
  - { offset: 0x375942, size: 0x8, addend: 0x0, symName: __ZN5hilti2rt6regexp10MatchStateC1Ev, symObjAddr: 0x5D4, symBinAddr: 0x100036B4C, symSize: 0x8 }
  - { offset: 0x37595D, size: 0x8, addend: 0x0, symName: __ZN5hilti2rt6regexp10MatchStateC1Ev, symObjAddr: 0x5D4, symBinAddr: 0x100036B4C, symSize: 0x8 }
  - { offset: 0x375978, size: 0x8, addend: 0x0, symName: __ZN5hilti2rt6regexp10MatchStateC1Ev, symObjAddr: 0x5D4, symBinAddr: 0x100036B4C, symSize: 0x8 }
  - { offset: 0x375993, size: 0x8, addend: 0x0, symName: __ZN5hilti2rt6regexp10MatchStateC1Ev, symObjAddr: 0x5D4, symBinAddr: 0x100036B4C, symSize: 0x8 }
  - { offset: 0x3759D5, size: 0x8, addend: 0x0, symName: __ZN5hilti2rt6regexp10MatchStateaSEOS2_, symObjAddr: 0x5DC, symBinAddr: 0x100036B54, symSize: 0x80 }
  - { offset: 0x375C85, size: 0x8, addend: 0x0, symName: __ZN5hilti2rt6regexp10MatchStateC2EOS2_, symObjAddr: 0x65C, symBinAddr: 0x100036BD4, symSize: 0x10 }
  - { offset: 0x375CAE, size: 0x8, addend: 0x0, symName: __ZN5hilti2rt6regexp10MatchStateC2EOS2_, symObjAddr: 0x65C, symBinAddr: 0x100036BD4, symSize: 0x10 }
  - { offset: 0x375CD0, size: 0x8, addend: 0x0, symName: __ZN5hilti2rt6regexp10MatchStateC2EOS2_, symObjAddr: 0x65C, symBinAddr: 0x100036BD4, symSize: 0x10 }
  - { offset: 0x375CF2, size: 0x8, addend: 0x0, symName: __ZN5hilti2rt6regexp10MatchStateC2EOS2_, symObjAddr: 0x65C, symBinAddr: 0x100036BD4, symSize: 0x10 }
  - { offset: 0x375D8E, size: 0x8, addend: 0x0, symName: __ZN5hilti2rt6regexp10MatchStateC1EOS2_, symObjAddr: 0x66C, symBinAddr: 0x100036BE4, symSize: 0x10 }
  - { offset: 0x375DC5, size: 0x8, addend: 0x0, symName: __ZN5hilti2rt6regexp10MatchStateC1EOS2_, symObjAddr: 0x66C, symBinAddr: 0x100036BE4, symSize: 0x10 }
  - { offset: 0x375DE7, size: 0x8, addend: 0x0, symName: __ZN5hilti2rt6regexp10MatchStateC1EOS2_, symObjAddr: 0x66C, symBinAddr: 0x100036BE4, symSize: 0x10 }
  - { offset: 0x375E09, size: 0x8, addend: 0x0, symName: __ZN5hilti2rt6regexp10MatchStateC1EOS2_, symObjAddr: 0x66C, symBinAddr: 0x100036BE4, symSize: 0x10 }
  - { offset: 0x375E2B, size: 0x8, addend: 0x0, symName: __ZN5hilti2rt6regexp10MatchStateC1EOS2_, symObjAddr: 0x66C, symBinAddr: 0x100036BE4, symSize: 0x10 }
  - { offset: 0x375EBF, size: 0x8, addend: 0x0, symName: __ZN5hilti2rt6regexp10MatchStateD2Ev, symObjAddr: 0x67C, symBinAddr: 0x100036BF4, symSize: 0x78 }
  - { offset: 0x376057, size: 0x8, addend: 0x0, symName: __ZN5hilti2rt6regexp10MatchStateD1Ev, symObjAddr: 0x6F4, symBinAddr: 0x100036C6C, symSize: 0x78 }
  - { offset: 0x376AEE, size: 0x8, addend: 0x0, symName: __ZN5hilti2rt6regexp10MatchState7advanceERKNS0_6stream4ViewE, symObjAddr: 0x76C, symBinAddr: 0x100036CE4, symSize: 0x280 }
  - { offset: 0x377479, size: 0x8, addend: 0x0, symName: __ZN5hilti2rt6regexp10MatchState8_advanceERKNS0_6stream4ViewEb, symObjAddr: 0xA24, symBinAddr: 0x100036F9C, symSize: 0x3D4 }
  - { offset: 0x377B96, size: 0x8, addend: 0x0, symName: __ZNK5hilti2rt6stream4View4trimERKNS1_17SafeConstIteratorE, symObjAddr: 0xDF8, symBinAddr: 0x100037370, symSize: 0x28C }
  - { offset: 0x377E2A, size: 0x8, addend: 0x0, symName: __ZNK5hilti2rt6stream4View4trimERKNS1_17SafeConstIteratorE, symObjAddr: 0xDF8, symBinAddr: 0x100037370, symSize: 0x28C }
  - { offset: 0x378B2A, size: 0x8, addend: 0x0, symName: __ZN5hilti2rt6stream17SafeConstIterator10_decrementERK7SafeIntIyNS0_7integer6detail16SafeIntExceptionEE, symObjAddr: 0x3E78, symBinAddr: 0x100039890, symSize: 0x194 }
  - { offset: 0x379565, size: 0x8, addend: 0x0, symName: __ZN5hilti2rt15MatchStateReuseC1ENSt3__117basic_string_viewIcNS2_11char_traitsIcEEEE, symObjAddr: 0x9EC, symBinAddr: 0x100036F64, symSize: 0x38 }
  - { offset: 0x37A9BF, size: 0x8, addend: 0x0, symName: __ZN5hilti2rt6regexp10MatchState7advanceERKNS0_5BytesEb, symObjAddr: 0x1194, symBinAddr: 0x1000375FC, symSize: 0x27C }
  - { offset: 0x37BBA3, size: 0x8, addend: 0x0, symName: __ZNK5hilti2rt6regexp10MatchState8capturesERKNS0_6stream4ViewE, symObjAddr: 0x1488, symBinAddr: 0x100037878, symSize: 0x2B4 }
  - { offset: 0x37C7AA, size: 0x8, addend: 0x0, symName: __ZNK5hilti2rt6stream4View3subERK7SafeIntIyNS0_7integer6detail16SafeIntExceptionEES9_, symObjAddr: 0x173C, symBinAddr: 0x100037B2C, symSize: 0x174 }
  - { offset: 0x37CE9E, size: 0x8, addend: 0x0, symName: __ZNSt3__16vectorIN5hilti2rt5BytesENS_9allocatorIS3_EEE24__emplace_back_slow_pathIJS3_EEEPS3_DpOT_, symObjAddr: 0x6E10, symBinAddr: 0x10003A480, symSize: 0x1B4 }
  - { offset: 0x37D5DB, size: 0x8, addend: 0x0, symName: __ZNSt3__16vectorIN5hilti2rt5BytesENS_9allocatorIS3_EEE24__emplace_back_slow_pathIJS3_EEEPS3_DpOT_, symObjAddr: 0x6E10, symBinAddr: 0x10003A480, symSize: 0x1B4 }
  - { offset: 0x37D82C, size: 0x8, addend: 0x0, symName: __ZN5hilti2rt6regexp6detail14CompiledRegExp7RegFreeclEP11jrx_regex_t, symObjAddr: 0x18B0, symBinAddr: 0x100037CA0, symSize: 0x38 }
  - { offset: 0x37DAB2, size: 0x8, addend: 0x0, symName: __ZN5hilti2rt6regexp6detail14CompiledRegExpC2ERKNSt3__16vectorINS1_7PatternENS4_9allocatorIS6_EEEENS1_5FlagsE, symObjAddr: 0x18E8, symBinAddr: 0x100037CD8, symSize: 0x14C }
  - { offset: 0x37E0A8, size: 0x8, addend: 0x0, symName: __ZNSt3__16vectorIN5hilti2rt6regexp7PatternENS_9allocatorIS4_EEE16__init_with_sizeB8ne180100IPS4_S9_EEvT_T0_m, symObjAddr: 0x6FD8, symBinAddr: 0x10003A634, symSize: 0x140 }
  - { offset: 0x37E65A, size: 0x8, addend: 0x0, symName: __ZN5hilti2rt6regexp6detail14CompiledRegExp7_newJrxEv, symObjAddr: 0x1A34, symBinAddr: 0x100037E24, symSize: 0xA8 }
  - { offset: 0x37E947, size: 0x8, addend: 0x0, symName: __ZNSt3__110unique_ptrI11jrx_regex_tN5hilti2rt6regexp6detail14CompiledRegExp7RegFreeEED1B8ne180100Ev, symObjAddr: 0x1CCC, symBinAddr: 0x1000380BC, symSize: 0x40 }
  - { offset: 0x37E9DF, size: 0x8, addend: 0x0, symName: __ZNSt3__16vectorIN5hilti2rt6regexp7PatternENS_9allocatorIS4_EEED1B8ne180100Ev, symObjAddr: 0x1D0C, symBinAddr: 0x1000380FC, symSize: 0x70 }
  - { offset: 0x37EFF6, size: 0x8, addend: 0x0, symName: __ZNSt3__16vectorIN5hilti2rt6regexp7PatternENS_9allocatorIS4_EEE21__push_back_slow_pathIS4_EEPS4_OT_, symObjAddr: 0x7764, symBinAddr: 0x10003ADAC, symSize: 0x178 }
  - { offset: 0x37F66D, size: 0x8, addend: 0x0, symName: __ZNSt3__112__hash_tableINS_17__hash_value_typeINS_12basic_stringIcNS_11char_traitsIcEENS_9allocatorIcEEEENS_10shared_ptrIN5hilti2rt6regexp6detail14CompiledRegExpEEEEENS_22__unordered_map_hasherIS7_SF_NS_4hashIS7_EENS_8equal_toIS7_EELb1EEENS_21__unordered_map_equalIS7_SF_SK_SI_Lb1EEENS5_ISF_EEE25__emplace_unique_key_argsIS7_JRKNS_21piecewise_construct_tENS_5tupleIJRKS7_EEENSU_IJEEEEEENS_4pairINS_15__hash_iteratorIPNS_11__hash_nodeISF_PvEEEEbEERKT_DpOT0_, symObjAddr: 0x78DC, symBinAddr: 0x10003AF24, symSize: 0x470 }
  - { offset: 0x37F74A, size: 0x8, addend: 0x0, symName: __ZN5hilti2rt6regexp6detail14CompiledRegExpC1ERKNSt3__16vectorINS1_7PatternENS4_9allocatorIS6_EEEENS1_5FlagsE, symObjAddr: 0x1D7C, symBinAddr: 0x10003816C, symSize: 0x8 }
  - { offset: 0x37F805, size: 0x8, addend: 0x0, symName: __ZN5hilti2rt6RegExpC2ERKNSt3__16vectorINS0_6regexp7PatternENS2_9allocatorIS5_EEEENS4_5FlagsE, symObjAddr: 0x1D84, symBinAddr: 0x100038174, symSize: 0x4B0 }
  - { offset: 0x38269E, size: 0x8, addend: 0x0, symName: __ZNSt3__16vectorINS_12basic_stringIcNS_11char_traitsIcEENS_9allocatorIcEEEENS4_IS6_EEE6insertENS_11__wrap_iterIPKS6_EEOS6_, symObjAddr: 0x5DC8, symBinAddr: 0x100039C00, symSize: 0x328 }
  - { offset: 0x38338E, size: 0x8, addend: 0x0, symName: __ZNSt3__112__hash_tableINS_17__hash_value_typeINS_12basic_stringIcNS_11char_traitsIcEENS_9allocatorIcEEEENS_10shared_ptrIN5hilti2rt6regexp6detail14CompiledRegExpEEEEENS_22__unordered_map_hasherIS7_SF_NS_4hashIS7_EENS_8equal_toIS7_EELb1EEENS_21__unordered_map_equalIS7_SF_SK_SI_Lb1EEENS5_ISF_EEE25__emplace_unique_key_argsIS7_JRKNS_21piecewise_construct_tENS_5tupleIJRKS7_EEENSU_IJEEEEEENS_4pairINS_15__hash_iteratorIPNS_11__hash_nodeISF_PvEEEEbEERKT_DpOT0_, symObjAddr: 0x78DC, symBinAddr: 0x10003AF24, symSize: 0x470 }
  - { offset: 0x383D77, size: 0x8, addend: 0x0, symName: __ZNSt3__16vectorINS_12basic_stringIcNS_11char_traitsIcEENS_9allocatorIcEEEENS4_IS6_EEED1B8ne180100Ev, symObjAddr: 0x23F8, symBinAddr: 0x1000387E8, symSize: 0x70 }
  - { offset: 0x384047, size: 0x8, addend: 0x0, symName: __ZN5hilti2rt6RegExpC1ERKNSt3__16vectorINS0_6regexp7PatternENS2_9allocatorIS5_EEEENS4_5FlagsE, symObjAddr: 0x24C8, symBinAddr: 0x100038858, symSize: 0x8 }
  - { offset: 0x3840D6, size: 0x8, addend: 0x0, symName: __ZN5hilti2rt6RegExpC2ENS0_6regexp7PatternENS2_5FlagsE, symObjAddr: 0x24D0, symBinAddr: 0x100038860, symSize: 0x124 }
  - { offset: 0x3847AF, size: 0x8, addend: 0x0, symName: __ZNSt3__16vectorIN5hilti2rt6regexp7PatternENS_9allocatorIS4_EEEC2B8ne180100ESt16initializer_listIS4_E, symObjAddr: 0x84B8, symBinAddr: 0x10003B508, symSize: 0x138 }
  - { offset: 0x384D5B, size: 0x8, addend: 0x0, symName: __ZN5hilti2rt6RegExpC1ENS0_6regexp7PatternENS2_5FlagsE, symObjAddr: 0x25F4, symBinAddr: 0x100038984, symSize: 0x124 }
  - { offset: 0x385495, size: 0x8, addend: 0x0, symName: __ZN5hilti2rt6RegExpC2Ev, symObjAddr: 0x2718, symBinAddr: 0x100038AA8, symSize: 0x48 }
  - { offset: 0x385535, size: 0x8, addend: 0x0, symName: __ZN5hilti2rt6RegExpC1Ev, symObjAddr: 0x2760, symBinAddr: 0x100038AF0, symSize: 0x48 }
  - { offset: 0x385643, size: 0x8, addend: 0x0, symName: __ZNK5hilti2rt6RegExp5matchERKNS0_5BytesE, symObjAddr: 0x27A8, symBinAddr: 0x100038B38, symSize: 0x64 }
  - { offset: 0x3857A8, size: 0x8, addend: 0x0, symName: __ZNK5hilti2rt6RegExp15_search_patternEP15jrx_match_statePKcmPiS6_, symObjAddr: 0x280C, symBinAddr: 0x100038B9C, symSize: 0x138 }
  - { offset: 0x3857B3, size: 0x8, addend: 0x0, symName: __ZNK5hilti2rt6RegExp15_search_patternEP15jrx_match_statePKcmPiS6_, symObjAddr: 0x280C, symBinAddr: 0x100038B9C, symSize: 0x138 }
  - { offset: 0x385B08, size: 0x8, addend: 0x0, symName: __ZNK5hilti2rt6RegExp11matchGroupsERKNS0_5BytesE, symObjAddr: 0x2944, symBinAddr: 0x100038CD4, symSize: 0x378 }
  - { offset: 0x386902, size: 0x8, addend: 0x0, symName: __ZL9_subsliceRKN5hilti2rt5BytesEii, symObjAddr: 0x2CF4, symBinAddr: 0x100039084, symSize: 0x268 }
  - { offset: 0x38765C, size: 0x8, addend: 0x0, symName: __ZN5hilti2rt12NotSupportedC1ENSt3__117basic_string_viewIcNS2_11char_traitsIcEEEE, symObjAddr: 0x2CBC, symBinAddr: 0x10003904C, symSize: 0x38 }
  - { offset: 0x387C88, size: 0x8, addend: 0x0, symName: __ZNK5hilti2rt5Bytes3subERKNS0_5bytes12SafeIteratorES5_, symObjAddr: 0x6374, symBinAddr: 0x10003A134, symSize: 0x208 }
  - { offset: 0x38859E, size: 0x8, addend: 0x0, symName: __ZNK5hilti2rt6RegExp4findERKNS0_5BytesE, symObjAddr: 0x2F5C, symBinAddr: 0x1000392EC, symSize: 0x1BC }
  - { offset: 0x388C64, size: 0x8, addend: 0x0, symName: __ZNK5hilti2rt6RegExp12tokenMatcherEv, symObjAddr: 0x3118, symBinAddr: 0x1000394A8, symSize: 0xC }
  - { offset: 0x388C96, size: 0x8, addend: 0x0, symName: __ZNK5hilti2rt6RegExp12tokenMatcherEv, symObjAddr: 0x3118, symBinAddr: 0x1000394A8, symSize: 0xC }
  - { offset: 0x388DCA, size: 0x8, addend: 0x0, symName: __ZNSt3__16vectorINS_12basic_stringIcNS_11char_traitsIcEENS_9allocatorIcEEEENS4_IS6_EEE24__emplace_back_slow_pathIJRA7_KcEEEPS6_DpOT_, symObjAddr: 0x85F0, symBinAddr: 0x10003B640, symSize: 0x22C }
  - { offset: 0x38B587, size: 0x8, addend: 0x0, symName: __ZNSt3__114__split_bufferINS_12basic_stringIcNS_11char_traitsIcEENS_9allocatorIcEEEERNS4_IS6_EEE9push_backEOS6_, symObjAddr: 0x60F0, symBinAddr: 0x100039F28, symSize: 0x20C }
  - { offset: 0x38BD61, size: 0x8, addend: 0x0, symName: __ZNK5hilti2rt5Bytes3subERKNS0_5bytes12SafeIteratorES5_, symObjAddr: 0x6374, symBinAddr: 0x10003A134, symSize: 0x208 }
  - { offset: 0x38CB61, size: 0x8, addend: 0x0, symName: __ZNSt3__16vectorIN5hilti2rt6regexp7PatternENS_9allocatorIS4_EEE16__init_with_sizeB8ne180100IPS4_S9_EEvT_T0_m, symObjAddr: 0x6FD8, symBinAddr: 0x10003A634, symSize: 0x140 }
  - { offset: 0x38CDCC, size: 0x8, addend: 0x0, symName: __ZN10tinyformat6formatIJN5hilti2rt6regexp7PatternEA256_cEEENSt3__112basic_stringIcNS6_11char_traitsIcEENS6_9allocatorIcEEEEPKcDpRKT_, symObjAddr: 0x71C0, symBinAddr: 0x10003A808, symSize: 0x1D0 }
  - { offset: 0x38CDD7, size: 0x8, addend: 0x0, symName: __ZNSt3__128__exception_guard_exceptionsINS_6vectorIN5hilti2rt6regexp7PatternENS_9allocatorIS5_EEE16__destroy_vectorEED1B8ne180100Ev, symObjAddr: 0x7118, symBinAddr: 0x10003A774, symSize: 0x94 }
  - { offset: 0x38D1D7, size: 0x8, addend: 0x0, symName: __ZN10tinyformat6detail9FormatArg10formatImplIN5hilti2rt6regexp7PatternEEEvRNSt3__113basic_ostreamIcNS7_11char_traitsIcEEEEPKcSE_iPKv, symObjAddr: 0x7390, symBinAddr: 0x10003A9D8, symSize: 0x14 }
  - { offset: 0x38D29F, size: 0x8, addend: 0x0, symName: __ZN10tinyformat6detail9FormatArg9toIntImplIN5hilti2rt6regexp7PatternEEEiPKv, symObjAddr: 0x73A4, symBinAddr: 0x10003A9EC, symSize: 0x8 }
  - { offset: 0x38D2EB, size: 0x8, addend: 0x0, symName: __ZN10tinyformat6detail9FormatArg10formatImplIA256_cEEvRNSt3__113basic_ostreamIcNS4_11char_traitsIcEEEEPKcSB_iPKv, symObjAddr: 0x76CC, symBinAddr: 0x10003AD14, symSize: 0x90 }
  - { offset: 0x38D48B, size: 0x8, addend: 0x0, symName: __ZN10tinyformat6detail9FormatArg9toIntImplIA256_cEEiPKv, symObjAddr: 0x775C, symBinAddr: 0x10003ADA4, symSize: 0x8 }
  - { offset: 0x38E676, size: 0x8, addend: 0x0, symName: __ZNSt3__120__shared_ptr_emplaceIN5hilti2rt6regexp6detail14CompiledRegExpENS_9allocatorIS5_EEED1Ev, symObjAddr: 0x83D4, symBinAddr: 0x10003B424, symSize: 0x14 }
  - { offset: 0x38E68B, size: 0x8, addend: 0x0, symName: __ZNSt3__110unique_ptrINS_11__hash_nodeINS_17__hash_value_typeINS_12basic_stringIcNS_11char_traitsIcEENS_9allocatorIcEEEENS_10shared_ptrIN5hilti2rt6regexp6detail14CompiledRegExpEEEEEPvEENS_22__hash_node_destructorINS6_ISI_EEEEED1B8ne180100Ev, symObjAddr: 0x7D4C, symBinAddr: 0x10003B394, symSize: 0x90 }
  - { offset: 0x38EE92, size: 0x8, addend: 0x0, symName: __ZNSt3__120__shared_ptr_emplaceIN5hilti2rt6regexp6detail14CompiledRegExpENS_9allocatorIS5_EEED1Ev, symObjAddr: 0x83D4, symBinAddr: 0x10003B424, symSize: 0x14 }
  - { offset: 0x38EEB4, size: 0x8, addend: 0x0, symName: __ZNSt3__120__shared_ptr_emplaceIN5hilti2rt6regexp6detail14CompiledRegExpENS_9allocatorIS5_EEED1Ev, symObjAddr: 0x83D4, symBinAddr: 0x10003B424, symSize: 0x14 }
  - { offset: 0x38EEEA, size: 0x8, addend: 0x0, symName: __ZNSt3__120__shared_ptr_emplaceIN5hilti2rt6regexp6detail14CompiledRegExpENS_9allocatorIS5_EEED0Ev, symObjAddr: 0x83E8, symBinAddr: 0x10003B438, symSize: 0x24 }
  - { offset: 0x38F026, size: 0x8, addend: 0x0, symName: __ZNSt3__120__shared_ptr_emplaceIN5hilti2rt6regexp6detail14CompiledRegExpENS_9allocatorIS5_EEE16__on_zero_sharedEv, symObjAddr: 0x840C, symBinAddr: 0x10003B45C, symSize: 0xA8 }
  - { offset: 0x38F3CD, size: 0x8, addend: 0x0, symName: __ZNSt3__120__shared_ptr_emplaceIN5hilti2rt6regexp6detail14CompiledRegExpENS_9allocatorIS5_EEE21__on_zero_shared_weakEv, symObjAddr: 0x84B4, symBinAddr: 0x10003B504, symSize: 0x4 }
  - { offset: 0x38F401, size: 0x8, addend: 0x0, symName: __ZNSt3__120__shared_ptr_emplaceIN5hilti2rt6regexp6detail14CompiledRegExpENS_9allocatorIS5_EEE21__on_zero_shared_weakEv, symObjAddr: 0x84B4, symBinAddr: 0x10003B504, symSize: 0x4 }
  - { offset: 0x38F423, size: 0x8, addend: 0x0, symName: __ZNSt3__120__shared_ptr_emplaceIN5hilti2rt6regexp6detail14CompiledRegExpENS_9allocatorIS5_EEE21__on_zero_shared_weakEv, symObjAddr: 0x84B4, symBinAddr: 0x10003B504, symSize: 0x4 }
  - { offset: 0x38F445, size: 0x8, addend: 0x0, symName: __ZNSt3__120__shared_ptr_emplaceIN5hilti2rt6regexp6detail14CompiledRegExpENS_9allocatorIS5_EEE21__on_zero_shared_weakEv, symObjAddr: 0x84B4, symBinAddr: 0x10003B504, symSize: 0x4 }
  - { offset: 0x38F470, size: 0x8, addend: 0x0, symName: __ZNSt3__120__shared_ptr_emplaceIN5hilti2rt6regexp6detail14CompiledRegExpENS_9allocatorIS5_EEE21__on_zero_shared_weakEv, symObjAddr: 0x84B4, symBinAddr: 0x10003B504, symSize: 0x4 }
  - { offset: 0x38F496, size: 0x8, addend: 0x0, symName: __ZNSt3__120__shared_ptr_emplaceIN5hilti2rt6regexp6detail14CompiledRegExpENS_9allocatorIS5_EEE21__on_zero_shared_weakEv, symObjAddr: 0x84B4, symBinAddr: 0x10003B504, symSize: 0x4 }
  - { offset: 0x38F6E6, size: 0x8, addend: 0x0, symName: _OUTLINED_FUNCTION_0, symObjAddr: 0x8A60, symBinAddr: 0x10003BA2C, symSize: 0x8 }
  - { offset: 0x3937F5, size: 0x8, addend: 0x0, symName: __ZN5hilti2rt6detail3adl9to_stringERKNS0_6stream17SafeConstIteratorENS2_3tagE, symObjAddr: 0x3EF8, symBinAddr: 0x10003F478, symSize: 0x3F4 }
  - { offset: 0x394FC9, size: 0x8, addend: 0x0, symName: __ZN5hilti2rt6detail3adl9to_stringERKNS0_6stream6detail19UnsafeConstIteratorENS2_3tagE, symObjAddr: 0x4474, symBinAddr: 0x10003F9F4, symSize: 0x304 }
  - { offset: 0x3A21C9, size: 0x8, addend: 0x0, symName: __ZN10tinyformat6formatIJ7SafeIntIyN5hilti2rt7integer6detail16SafeIntExceptionEENSt3__112basic_stringIcNS8_11char_traitsIcEENS8_9allocatorIcEEEEEEESE_PKcDpRKT_, symObjAddr: 0x7270, symBinAddr: 0x1000405E0, symSize: 0x1D0 }
  - { offset: 0x3A266C, size: 0x8, addend: 0x0, symName: __ZN10tinyformat6formatIJPKN5hilti2rt6stream17SafeConstIteratorEPNS3_6detail5ChainEiPKNS7_5ChunkE7SafeIntIyNS2_7integer6detail16SafeIntExceptionEEiEEENSt3__112basic_stringIcNSI_11char_traitsIcEENSI_9allocatorIcEEEEPKcDpRKT_, symObjAddr: 0x76CC, symBinAddr: 0x1000407B0, symSize: 0x22C }
  - { offset: 0x3A2CCB, size: 0x8, addend: 0x0, symName: __ZN10tinyformat6formatIJPKN5hilti2rt6stream6detail19UnsafeConstIteratorEPKNS4_5ChainEiPKNS4_5ChunkE7SafeIntIyNS2_7integer6detail16SafeIntExceptionEEiEEENSt3__112basic_stringIcNSJ_11char_traitsIcEENSJ_9allocatorIcEEEEPKcDpRKT_, symObjAddr: 0x81E4, symBinAddr: 0x100040A60, symSize: 0x22C }
  - { offset: 0x3A332A, size: 0x8, addend: 0x0, symName: __ZN10tinyformat6formatIJPKN5hilti2rt6stream6detail5ChainEEEENSt3__112basic_stringIcNS8_11char_traitsIcEENS8_9allocatorIcEEEEPKcDpRKT_, symObjAddr: 0x8868, symBinAddr: 0x100040CE4, symSize: 0x1B8 }
  - { offset: 0x3A374A, size: 0x8, addend: 0x0, symName: __ZN10tinyformat6formatIJiPKN5hilti2rt6stream6detail5ChunkEEEENSt3__112basic_stringIcNS8_11char_traitsIcEENS8_9allocatorIcEEEEPKcDpRKT_, symObjAddr: 0x8A20, symBinAddr: 0x100040E9C, symSize: 0x1D0 }
  - { offset: 0x3A3BED, size: 0x8, addend: 0x0, symName: __ZN10tinyformat6formatIJ7SafeIntIyN5hilti2rt7integer6detail16SafeIntExceptionEENSt3__112basic_stringIcNS8_11char_traitsIcEENS8_9allocatorIcEEEEPKcEEESE_SG_DpRKT_, symObjAddr: 0x8BF0, symBinAddr: 0x10004106C, symSize: 0x1EC }
  - { offset: 0x3A4A61, size: 0x8, addend: 0x0, symName: __ZN5hilti2rt6stream6detail5Chunk7destroyEv, symObjAddr: 0x0, symBinAddr: 0x10003BA34, symSize: 0x70 }
  - { offset: 0x3A4DAB, size: 0x8, addend: 0x0, symName: __ZNSt3__110unique_ptrIN5hilti2rt6stream6detail5ChunkENS_14default_deleteIS5_EEED1B8ne180100Ev, symObjAddr: 0x70, symBinAddr: 0x10003BAA4, symSize: 0x34 }
  - { offset: 0x3A50B2, size: 0x8, addend: 0x0, symName: __ZN5hilti2rt6stream6detail5ChunkC2ERK7SafeIntIyNS0_7integer6detail16SafeIntExceptionEERKNS1_4ViewE, symObjAddr: 0xA4, symBinAddr: 0x10003BAD8, symSize: 0x124 }
  - { offset: 0x3A5378, size: 0x8, addend: 0x0, symName: __ZNK5hilti2rt6stream4View7copyRawEPh, symObjAddr: 0x1C8, symBinAddr: 0x10003BBFC, symSize: 0x184 }
  - { offset: 0x3A5FF0, size: 0x8, addend: 0x0, symName: __ZN5hilti2rt6stream6detail19UnsafeConstIterator10_incrementERK7SafeIntIyNS0_7integer6detail16SafeIntExceptionEE, symObjAddr: 0x53CC, symBinAddr: 0x1000403B8, symSize: 0x118 }
  - { offset: 0x3A6319, size: 0x8, addend: 0x0, symName: __ZN5hilti2rt11MissingDataC1ENSt3__117basic_string_viewIcNS2_11char_traitsIcEEEE, symObjAddr: 0x4D44, symBinAddr: 0x1000402B4, symSize: 0x38 }
  - { offset: 0x3A63BF, size: 0x8, addend: 0x0, symName: __ZN5hilti2rt6stream6detail5ChunkC1ERK7SafeIntIyNS0_7integer6detail16SafeIntExceptionEERKNS1_4ViewE, symObjAddr: 0x34C, symBinAddr: 0x10003BD80, symSize: 0x4 }
  - { offset: 0x3A6409, size: 0x8, addend: 0x0, symName: __ZN5hilti2rt6stream6detail5ChunkC1ERK7SafeIntIyNS0_7integer6detail16SafeIntExceptionEERKNS1_4ViewE, symObjAddr: 0x34C, symBinAddr: 0x10003BD80, symSize: 0x4 }
  - { offset: 0x3A642A, size: 0x8, addend: 0x0, symName: __ZN5hilti2rt6stream6detail5ChunkC2ERK7SafeIntIyNS0_7integer6detail16SafeIntExceptionEENSt3__117basic_string_viewIcNSB_11char_traitsIcEEEE, symObjAddr: 0x350, symBinAddr: 0x10003BD84, symSize: 0x94 }
  - { offset: 0x3A64F8, size: 0x8, addend: 0x0, symName: __ZN5hilti2rt6stream6detail5ChunkC1ERK7SafeIntIyNS0_7integer6detail16SafeIntExceptionEENSt3__117basic_string_viewIcNSB_11char_traitsIcEEEE, symObjAddr: 0x3E4, symBinAddr: 0x10003BE18, symSize: 0x88 }
  - { offset: 0x3A65E2, size: 0x8, addend: 0x0, symName: __ZN5hilti2rt6stream6detail5ChunkC2ERK7SafeIntIyNS0_7integer6detail16SafeIntExceptionEEPKhm, symObjAddr: 0x46C, symBinAddr: 0x10003BEA0, symSize: 0x94 }
  - { offset: 0x3A66AA, size: 0x8, addend: 0x0, symName: __ZN5hilti2rt6stream6detail5ChunkC1ERK7SafeIntIyNS0_7integer6detail16SafeIntExceptionEEPKhm, symObjAddr: 0x500, symBinAddr: 0x10003BF34, symSize: 0x88 }
  - { offset: 0x3A6A28, size: 0x8, addend: 0x0, symName: __ZN5hilti2rt6stream6detail5Chain6appendEPKhm, symObjAddr: 0x588, symBinAddr: 0x10003BFBC, symSize: 0x178 }
  - { offset: 0x3A6EDF, size: 0x8, addend: 0x0, symName: __ZN5hilti2rt6stream6detail5Chain6appendENSt3__110unique_ptrINS2_5ChunkENS4_14default_deleteIS6_EEEE, symObjAddr: 0x700, symBinAddr: 0x10003C134, symSize: 0x248 }
  - { offset: 0x3A775E, size: 0x8, addend: 0x0, symName: __ZNSt3__110unique_ptrIN5hilti2rt6stream6detail5ChunkENS_14default_deleteIS5_EEE5resetB8ne180100EPS5_, symObjAddr: 0x4E40, symBinAddr: 0x100040324, symSize: 0x94 }
  - { offset: 0x3A7A35, size: 0x8, addend: 0x0, symName: __ZN5hilti2rt6FrozenC1ENSt3__117basic_string_viewIcNS2_11char_traitsIcEEEE, symObjAddr: 0x4E08, symBinAddr: 0x1000402EC, symSize: 0x38 }
  - { offset: 0x3A7C92, size: 0x8, addend: 0x0, symName: __ZN5hilti2rt6stream6detail5Chain6appendEPKhmNS1_9NonOwningE, symObjAddr: 0x948, symBinAddr: 0x10003C37C, symSize: 0xDC }
  - { offset: 0x3A83F6, size: 0x8, addend: 0x0, symName: __ZN5hilti2rt6stream6detail5Chain6appendEONS0_5BytesE, symObjAddr: 0xA24, symBinAddr: 0x10003C458, symSize: 0x24C }
  - { offset: 0x3A8ED2, size: 0x8, addend: 0x0, symName: __ZN5hilti2rt6stream6detail5Chain6appendEOS3_, symObjAddr: 0xC70, symBinAddr: 0x10003C6A4, symSize: 0x218 }
  - { offset: 0x3A937C, size: 0x8, addend: 0x0, symName: __ZN5hilti2rt6stream6detail5Chain9appendGapEm, symObjAddr: 0xE88, symBinAddr: 0x10003C8BC, symSize: 0x80 }
  - { offset: 0x3A9600, size: 0x8, addend: 0x0, symName: __ZN5hilti2rt6stream6detail5Chain4trimERK7SafeIntIyNS0_7integer6detail16SafeIntExceptionEE, symObjAddr: 0xF08, symBinAddr: 0x10003C93C, symSize: 0x154 }
  - { offset: 0x3A9B4D, size: 0x8, addend: 0x0, symName: __ZNK5hilti2rt6stream6detail5Chain4copyEv, symObjAddr: 0x105C, symBinAddr: 0x10003CA90, symSize: 0x1A4 }
  - { offset: 0x3AA197, size: 0x8, addend: 0x0, symName: __ZNK5hilti2rt6stream6detail5Chain14numberOfChunksEv, symObjAddr: 0x1278, symBinAddr: 0x10003CC34, symSize: 0x24 }
  - { offset: 0x3AA1CF, size: 0x8, addend: 0x0, symName: __ZNK5hilti2rt6stream6detail5Chain14numberOfChunksEv, symObjAddr: 0x1278, symBinAddr: 0x10003CC34, symSize: 0x24 }
  - { offset: 0x3AA2AC, size: 0x8, addend: 0x0, symName: __ZNK5hilti2rt6stream4View10isCompleteEv, symObjAddr: 0x129C, symBinAddr: 0x10003CC58, symSize: 0x98 }
  - { offset: 0x3AAF04, size: 0x8, addend: 0x0, symName: __ZNK5hilti2rt6stream4View17advanceToNextDataEv, symObjAddr: 0x143C, symBinAddr: 0x10003CCF0, symSize: 0x654 }
  - { offset: 0x3AE6A0, size: 0x8, addend: 0x0, symName: __ZNK5hilti2rt6stream4View4findEhNS1_6detail19UnsafeConstIteratorE, symObjAddr: 0x1CF8, symBinAddr: 0x10003D344, symSize: 0x1EC }
  - { offset: 0x3AEF70, size: 0x8, addend: 0x0, symName: __ZNK5hilti2rt6stream4View4findERKS2_NS1_6detail19UnsafeConstIteratorE, symObjAddr: 0x1EE4, symBinAddr: 0x10003D530, symSize: 0x4F8 }
  - { offset: 0x3B0582, size: 0x8, addend: 0x0, symName: __ZNK5hilti2rt6stream4View12_findForwardERKNS0_5BytesENS1_6detail19UnsafeConstIteratorE, symObjAddr: 0x23DC, symBinAddr: 0x10003DA28, symSize: 0x388 }
  - { offset: 0x3B183F, size: 0x8, addend: 0x0, symName: __ZNK5hilti2rt6stream4View13_findBackwardERKNS0_5BytesENS1_6detail19UnsafeConstIteratorE, symObjAddr: 0x2764, symBinAddr: 0x10003DDB0, symSize: 0x408 }
  - { offset: 0x3B29F0, size: 0x8, addend: 0x0, symName: __ZN5hilti2rt6stream6detail19UnsafeConstIterator10_decrementERK7SafeIntIyNS0_7integer6detail16SafeIntExceptionEE, symObjAddr: 0x560C, symBinAddr: 0x1000404D0, symSize: 0x110 }
  - { offset: 0x3B2C66, size: 0x8, addend: 0x0, symName: __ZN5hilti2rt6stream4View13_force_vtableEv, symObjAddr: 0x2BA4, symBinAddr: 0x10003E1B8, symSize: 0x4 }
  - { offset: 0x3B2C98, size: 0x8, addend: 0x0, symName: __ZNK5hilti2rt6stream4View10startsWithERKNS0_5BytesE, symObjAddr: 0x2BA8, symBinAddr: 0x10003E1BC, symSize: 0x214 }
  - { offset: 0x3B390E, size: 0x8, addend: 0x0, symName: __ZNK5hilti2rt6stream4View10firstBlockEv, symObjAddr: 0x2DBC, symBinAddr: 0x10003E3D0, symSize: 0x2F0 }
  - { offset: 0x3B43F3, size: 0x8, addend: 0x0, symName: __ZNK5hilti2rt6stream4View9nextBlockENSt3__18optionalINS2_5BlockEEE, symObjAddr: 0x30AC, symBinAddr: 0x10003E6C0, symSize: 0x170 }
  - { offset: 0x3B4B43, size: 0x8, addend: 0x0, symName: __ZN5hilti2rt6StreamC2ENS0_5BytesE, symObjAddr: 0x321C, symBinAddr: 0x10003E830, symSize: 0x1A0 }
  - { offset: 0x3B53FB, size: 0x8, addend: 0x0, symName: __ZN5hilti2rt6StreamC1ENS0_5BytesE, symObjAddr: 0x3450, symBinAddr: 0x10003E9D0, symSize: 0x1A0 }
  - { offset: 0x3B5C82, size: 0x8, addend: 0x0, symName: __ZN5hilti2rt6Stream6appendERKNS0_5BytesE, symObjAddr: 0x35F0, symBinAddr: 0x10003EB70, symSize: 0x38 }
  - { offset: 0x3B5DD2, size: 0x8, addend: 0x0, symName: __ZN5hilti2rt6Stream6appendEONS0_5BytesE, symObjAddr: 0x3628, symBinAddr: 0x10003EBA8, symSize: 0x8 }
  - { offset: 0x3B5DDD, size: 0x8, addend: 0x0, symName: __ZN5hilti2rt6Stream6appendEONS0_5BytesE, symObjAddr: 0x3628, symBinAddr: 0x10003EBA8, symSize: 0x8 }
  - { offset: 0x3B5E18, size: 0x8, addend: 0x0, symName: __ZN5hilti2rt6Stream6appendEONS0_5BytesE, symObjAddr: 0x3628, symBinAddr: 0x10003EBA8, symSize: 0x8 }
  - { offset: 0x3B5E6C, size: 0x8, addend: 0x0, symName: __ZN5hilti2rt6Stream6appendEPKcm, symObjAddr: 0x3630, symBinAddr: 0x10003EBB0, symSize: 0xA4 }
  - { offset: 0x3B614B, size: 0x8, addend: 0x0, symName: __ZN5hilti2rt6Stream6appendEPKcmNS0_6stream9NonOwningE, symObjAddr: 0x36D4, symBinAddr: 0x10003EC54, symSize: 0x98 }
  - { offset: 0x3B6549, size: 0x8, addend: 0x0, symName: __ZNK5hilti2rt6stream4View12dataForPrintEv, symObjAddr: 0x376C, symBinAddr: 0x10003ECEC, symSize: 0x1DC }
  - { offset: 0x3B6C57, size: 0x8, addend: 0x0, symName: __ZNK5hilti2rt6stream4VieweqERKNS0_6StreamE, symObjAddr: 0x3948, symBinAddr: 0x10003EEC8, symSize: 0xCC }
  - { offset: 0x3B6F40, size: 0x8, addend: 0x0, symName: __ZNK5hilti2rt6stream4VieweqERKS2_, symObjAddr: 0x3A14, symBinAddr: 0x10003EF94, symSize: 0x2D0 }
  - { offset: 0x3B7DB9, size: 0x8, addend: 0x0, symName: __ZNK5hilti2rt6stream4VieweqERKNS0_5BytesE, symObjAddr: 0x3CE4, symBinAddr: 0x10003F264, symSize: 0x214 }
  - { offset: 0x3B8EA9, size: 0x8, addend: 0x0, symName: __ZNK5hilti2rt6stream17SafeConstIterator10debugPrintERNSt3__113basic_ostreamIcNS3_11char_traitsIcEEEE, symObjAddr: 0x42EC, symBinAddr: 0x10003F86C, symSize: 0x188 }
  - { offset: 0x3B94FA, size: 0x8, addend: 0x0, symName: __ZNK5hilti2rt6stream6detail19UnsafeConstIterator10debugPrintERNSt3__113basic_ostreamIcNS4_11char_traitsIcEEEE, symObjAddr: 0x4778, symBinAddr: 0x10003FCF8, symSize: 0x140 }
  - { offset: 0x3B99F0, size: 0x8, addend: 0x0, symName: __ZNK5hilti2rt6stream4View10debugPrintERNSt3__113basic_ostreamIcNS3_11char_traitsIcEEEE, symObjAddr: 0x48B8, symBinAddr: 0x10003FE38, symSize: 0xC8 }
  - { offset: 0x3B9C24, size: 0x8, addend: 0x0, symName: __ZN5hilti2rt6Stream10debugPrintERNSt3__113basic_ostreamIcNS2_11char_traitsIcEEEEPKNS0_6stream6detail5ChainE, symObjAddr: 0x4980, symBinAddr: 0x10003FF00, symSize: 0x150 }
  - { offset: 0x3BA196, size: 0x8, addend: 0x0, symName: __ZNK5hilti2rt6stream6detail5Chunk10debugPrintERNSt3__113basic_ostreamIcNS4_11char_traitsIcEEEE, symObjAddr: 0x4AD0, symBinAddr: 0x100040050, symSize: 0x254 }
  - { offset: 0x3BAEFC, size: 0x8, addend: 0x0, symName: __ZNK5hilti2rt6Stream10debugPrintERNSt3__113basic_ostreamIcNS2_11char_traitsIcEEEE, symObjAddr: 0x4D24, symBinAddr: 0x1000402A4, symSize: 0x10 }
  - { offset: 0x3BC330, size: 0x8, addend: 0x0, symName: __ZN10tinyformat6detail9FormatArg10formatImplIPKN5hilti2rt6stream17SafeConstIteratorEEEvRNSt3__113basic_ostreamIcNS9_11char_traitsIcEEEEPKcSG_iPKv, symObjAddr: 0x78F8, symBinAddr: 0x1000409DC, symSize: 0x24 }
  - { offset: 0x3BC394, size: 0x8, addend: 0x0, symName: __ZN10tinyformat6detail9FormatArg10formatImplIPKN5hilti2rt6stream17SafeConstIteratorEEEvRNSt3__113basic_ostreamIcNS9_11char_traitsIcEEEEPKcSG_iPKv, symObjAddr: 0x78F8, symBinAddr: 0x1000409DC, symSize: 0x24 }
  - { offset: 0x3BC3F2, size: 0x8, addend: 0x0, symName: __ZN10tinyformat6detail9FormatArg9toIntImplIPKN5hilti2rt6stream17SafeConstIteratorEEEiPKv, symObjAddr: 0x791C, symBinAddr: 0x100040A00, symSize: 0x8 }
  - { offset: 0x3BC420, size: 0x8, addend: 0x0, symName: __ZN10tinyformat6detail9FormatArg10formatImplIPN5hilti2rt6stream6detail5ChainEEEvRNSt3__113basic_ostreamIcNS9_11char_traitsIcEEEEPKcSG_iPKv, symObjAddr: 0x7B24, symBinAddr: 0x100040A08, symSize: 0x24 }
  - { offset: 0x3BC484, size: 0x8, addend: 0x0, symName: __ZN10tinyformat6detail9FormatArg10formatImplIPN5hilti2rt6stream6detail5ChainEEEvRNSt3__113basic_ostreamIcNS9_11char_traitsIcEEEEPKcSG_iPKv, symObjAddr: 0x7B24, symBinAddr: 0x100040A08, symSize: 0x24 }
  - { offset: 0x3BC4E2, size: 0x8, addend: 0x0, symName: __ZN10tinyformat6detail9FormatArg9toIntImplIPN5hilti2rt6stream6detail5ChainEEEiPKv, symObjAddr: 0x7B48, symBinAddr: 0x100040A2C, symSize: 0x8 }
  - { offset: 0x3BC510, size: 0x8, addend: 0x0, symName: __ZN10tinyformat6detail9FormatArg10formatImplIPKN5hilti2rt6stream6detail5ChunkEEEvRNSt3__113basic_ostreamIcNSA_11char_traitsIcEEEEPKcSH_iPKv, symObjAddr: 0x7FB8, symBinAddr: 0x100040A34, symSize: 0x24 }
  - { offset: 0x3BC574, size: 0x8, addend: 0x0, symName: __ZN10tinyformat6detail9FormatArg10formatImplIPKN5hilti2rt6stream6detail5ChunkEEEvRNSt3__113basic_ostreamIcNSA_11char_traitsIcEEEEPKcSH_iPKv, symObjAddr: 0x7FB8, symBinAddr: 0x100040A34, symSize: 0x24 }
  - { offset: 0x3BC5D2, size: 0x8, addend: 0x0, symName: __ZN10tinyformat6detail9FormatArg9toIntImplIPKN5hilti2rt6stream6detail5ChunkEEEiPKv, symObjAddr: 0x7FDC, symBinAddr: 0x100040A58, symSize: 0x8 }
  - { offset: 0x3BC7C8, size: 0x8, addend: 0x0, symName: __ZN10tinyformat6detail9FormatArg10formatImplIPKN5hilti2rt6stream6detail19UnsafeConstIteratorEEEvRNSt3__113basic_ostreamIcNSA_11char_traitsIcEEEEPKcSH_iPKv, symObjAddr: 0x8410, symBinAddr: 0x100040C8C, symSize: 0x24 }
  - { offset: 0x3BC82C, size: 0x8, addend: 0x0, symName: __ZN10tinyformat6detail9FormatArg10formatImplIPKN5hilti2rt6stream6detail19UnsafeConstIteratorEEEvRNSt3__113basic_ostreamIcNSA_11char_traitsIcEEEEPKcSH_iPKv, symObjAddr: 0x8410, symBinAddr: 0x100040C8C, symSize: 0x24 }
  - { offset: 0x3BC88A, size: 0x8, addend: 0x0, symName: __ZN10tinyformat6detail9FormatArg9toIntImplIPKN5hilti2rt6stream6detail19UnsafeConstIteratorEEEiPKv, symObjAddr: 0x8434, symBinAddr: 0x100040CB0, symSize: 0x8 }
  - { offset: 0x3BC8B8, size: 0x8, addend: 0x0, symName: __ZN10tinyformat6detail9FormatArg10formatImplIPKN5hilti2rt6stream6detail5ChainEEEvRNSt3__113basic_ostreamIcNSA_11char_traitsIcEEEEPKcSH_iPKv, symObjAddr: 0x863C, symBinAddr: 0x100040CB8, symSize: 0x24 }
  - { offset: 0x3BC91C, size: 0x8, addend: 0x0, symName: __ZN10tinyformat6detail9FormatArg10formatImplIPKN5hilti2rt6stream6detail5ChainEEEvRNSt3__113basic_ostreamIcNSA_11char_traitsIcEEEEPKcSH_iPKv, symObjAddr: 0x863C, symBinAddr: 0x100040CB8, symSize: 0x24 }
  - { offset: 0x3BC97A, size: 0x8, addend: 0x0, symName: __ZN10tinyformat6detail9FormatArg9toIntImplIPKN5hilti2rt6stream6detail5ChainEEEiPKv, symObjAddr: 0x8660, symBinAddr: 0x100040CDC, symSize: 0x8 }
  - { offset: 0x3BF5B5, size: 0x8, addend: 0x0, symName: __ZN5hilti2rt6string4sizeERKNSt3__112basic_stringIcNS2_11char_traitsIcEENS2_9allocatorIcEEEENS0_7unicode19DecodeErrorStrategyE, symObjAddr: 0x0, symBinAddr: 0x100041258, symSize: 0x404 }
  - { offset: 0x3BFABC, size: 0x8, addend: 0x0, symName: __ZN5hilti2rt6string5upperENSt3__117basic_string_viewIcNS2_11char_traitsIcEEEENS0_7unicode19DecodeErrorStrategyE, symObjAddr: 0x4FC, symBinAddr: 0x10004165C, symSize: 0x27C }
  - { offset: 0x3C048D, size: 0x8, addend: 0x0, symName: __ZN5hilti2rt6string5lowerENSt3__117basic_string_viewIcNS2_11char_traitsIcEEEENS0_7unicode19DecodeErrorStrategyE, symObjAddr: 0x778, symBinAddr: 0x1000418D8, symSize: 0x27C }
  - { offset: 0x3C0E5E, size: 0x8, addend: 0x0, symName: __ZN5hilti2rt6string5splitENSt3__117basic_string_viewIcNS2_11char_traitsIcEEEE, symObjAddr: 0x9F4, symBinAddr: 0x100041B54, symSize: 0x18C }
  - { offset: 0x3C174C, size: 0x8, addend: 0x0, symName: __ZN5hilti2rt6string5splitENSt3__117basic_string_viewIcNS2_11char_traitsIcEEEES6_, symObjAddr: 0xD60, symBinAddr: 0x100041E14, symSize: 0x18C }
  - { offset: 0x3C2053, size: 0x8, addend: 0x0, symName: __ZN5hilti2rt6string6split1ERKNSt3__112basic_stringIcNS2_11char_traitsIcEENS2_9allocatorIcEEEE, symObjAddr: 0xEEC, symBinAddr: 0x100041FA0, symSize: 0x14C }
  - { offset: 0x3C28D3, size: 0x8, addend: 0x0, symName: __ZN5hilti2rt6string6split1ERKNSt3__112basic_stringIcNS2_11char_traitsIcEENS2_9allocatorIcEEEESA_, symObjAddr: 0x1090, symBinAddr: 0x1000420EC, symSize: 0x154 }
  - { offset: 0x3C3168, size: 0x8, addend: 0x0, symName: __ZN5hilti2rt6string6encodeENSt3__112basic_stringIcNS2_11char_traitsIcEENS2_9allocatorIcEEEENS0_7unicode7CharsetENS9_19DecodeErrorStrategyE, symObjAddr: 0x11E4, symBinAddr: 0x100042240, symSize: 0x838 }
  - { offset: 0x3C549A, size: 0x8, addend: 0x0, symName: __ZN4utf88utf8to16INSt3__120back_insert_iteratorINS1_12basic_stringIDsNS1_11char_traitsIDsEENS1_9allocatorIDsEEEEEENS1_11__wrap_iterIPKcEEEET_T0_SF_SE_, symObjAddr: 0x1BEC, symBinAddr: 0x100042A78, symSize: 0x22C }
  - { offset: 0x3CFF3C, size: 0x8, addend: 0x0, symName: __ZNSt3__16vectorINS_12basic_stringIcNS_11char_traitsIcEENS_9allocatorIcEEEENS4_IS6_EEE7reserveEm, symObjAddr: 0xB80, symBinAddr: 0x100041CE0, symSize: 0x134 }
  - { offset: 0x3D0437, size: 0x8, addend: 0x0, symName: __ZNSt3__16vectorINS_12basic_stringIcNS_11char_traitsIcEENS_9allocatorIcEEEENS4_IS6_EEE24__emplace_back_slow_pathIJRNS_17basic_string_viewIcS3_EEEEEPS6_DpOT_, symObjAddr: 0x2374, symBinAddr: 0x100042CA4, symSize: 0x228 }
  - { offset: 0x3D4C6A, size: 0x8, addend: 0x0, symName: __ZN5hilti2rt4time12current_timeEv, symObjAddr: 0x0, symBinAddr: 0x100042ECC, symSize: 0x150 }
  - { offset: 0x3D4D9F, size: 0x8, addend: 0x0, symName: __ZN5hilti2rt4time6mktimeEyyyyyy, symObjAddr: 0x188, symBinAddr: 0x10004301C, symSize: 0x1AC }
  - { offset: 0x3DC1FA, size: 0x8, addend: 0x0, symName: __ZN10tinyformat6formatIJA60_cNSt3__112basic_stringIcNS2_11char_traitsIcEENS2_9allocatorIcEEEEEEES8_PKcDpRKT_, symObjAddr: 0x1F94, symBinAddr: 0x100043450, symSize: 0x1D0 }
  - { offset: 0x3DD0BA, size: 0x8, addend: 0x0, symName: __ZNK5hilti2rt4TimecvNSt3__112basic_stringIcNS2_11char_traitsIcEENS2_9allocatorIcEEEEEv, symObjAddr: 0x36C, symBinAddr: 0x1000431C8, symSize: 0x288 }
  - { offset: 0x3DE953, size: 0x8, addend: 0x0, symName: __ZN10tinyformat6detail9FormatArg10formatImplIA60_cEEvRNSt3__113basic_ostreamIcNS4_11char_traitsIcEEEEPKcSB_iPKv, symObjAddr: 0x2164, symBinAddr: 0x100043620, symSize: 0x90 }
  - { offset: 0x3DEB05, size: 0x8, addend: 0x0, symName: __ZN10tinyformat6detail9FormatArg9toIntImplIA60_cEEiPKv, symObjAddr: 0x21F4, symBinAddr: 0x1000436B0, symSize: 0x8 }
  - { offset: 0x3F6336, size: 0x8, addend: 0x0, symName: __ZN3ghc10filesystem19temp_directory_pathERNSt3__110error_codeE, symObjAddr: 0x97C, symBinAddr: 0x100044034, symSize: 0x140 }
  - { offset: 0x3F6362, size: 0x8, addend: 0x0, symName: __ZZN3ghc10filesystem19temp_directory_pathERNSt3__110error_codeEE9temp_vars, symObjAddr: 0xB0E0, symBinAddr: 0x1000BC2B8, symSize: 0x0 }
  - { offset: 0x3F7475, size: 0x8, addend: 0x0, symName: __ZN3ghc10filesystem6detail15systemErrorTextIiEENSt3__112basic_stringIcNS3_11char_traitsIcEENS3_9allocatorIcEEEET_, symObjAddr: 0x5688, symBinAddr: 0x1000483B4, symSize: 0x10C }
  - { offset: 0x3F78BF, size: 0x8, addend: 0x0, symName: __ZN3ghc10filesystem6detail9status_exERKNS0_4pathERNSt3__110error_codeEPNS0_11file_statusEPmSA_Pli, symObjAddr: 0x5814, symBinAddr: 0x100048540, symSize: 0x1F8 }
  - { offset: 0x3F7D16, size: 0x8, addend: 0x0, symName: __ZN3ghc10filesystem6detail14resolveSymlinkERKNS0_4pathERNSt3__110error_codeE, symObjAddr: 0x7620, symBinAddr: 0x10004A34C, symSize: 0x204 }
  - { offset: 0x3F8A7B, size: 0x8, addend: 0x0, symName: __ZN3ghc10filesystem6statusERKNS0_4pathE, symObjAddr: 0x5598, symBinAddr: 0x1000482C4, symSize: 0xF0 }
  - { offset: 0x3F8D33, size: 0x8, addend: 0x0, symName: __ZN3ghc10filesystem9canonicalERKNS0_4pathE, symObjAddr: 0xCE0, symBinAddr: 0x1000442E8, symSize: 0xEC }
  - { offset: 0x3F91F9, size: 0x8, addend: 0x0, symName: __ZN3ghc10filesystem9canonicalERKNS0_4pathERNSt3__110error_codeE, symObjAddr: 0x5D70, symBinAddr: 0x100048A9C, symSize: 0x8B8 }
  - { offset: 0x3FC33E, size: 0x8, addend: 0x0, symName: __ZN3ghc10filesystem8absoluteERKNS0_4pathERNSt3__110error_codeE, symObjAddr: 0x6628, symBinAddr: 0x100049354, symSize: 0x570 }
  - { offset: 0x3FE47D, size: 0x8, addend: 0x0, symName: __ZN3ghc10filesystem12read_symlinkERKNS0_4pathERNSt3__110error_codeE, symObjAddr: 0x7020, symBinAddr: 0x100049D4C, symSize: 0x124 }
  - { offset: 0x3FEBD1, size: 0x8, addend: 0x0, symName: __ZN3ghc10filesystem12current_pathERNSt3__110error_codeE, symObjAddr: 0x7144, symBinAddr: 0x100049E70, symSize: 0x178 }
  - { offset: 0x3FF722, size: 0x8, addend: 0x0, symName: __ZNK3ghc10filesystem4path14root_directoryEv, symObjAddr: 0x72BC, symBinAddr: 0x100049FE8, symSize: 0x128 }
  - { offset: 0x3FF749, size: 0x8, addend: 0x0, symName: __ZZNK3ghc10filesystem4path14root_directoryEvE9_root_dir, symObjAddr: 0xB108, symBinAddr: 0x1000BC2E0, symSize: 0x0 }
  - { offset: 0x3FFDBD, size: 0x8, addend: 0x0, symName: __ZN5hilti2rt6detail3adl9to_stringERKNS0_9ByteOrderENS2_3tagE, symObjAddr: 0x3520, symBinAddr: 0x100046AF0, symSize: 0x104 }
  - { offset: 0x400910, size: 0x8, addend: 0x0, symName: __ZN5hilti2rt8strftimeERKNSt3__112basic_stringIcNS1_11char_traitsIcEENS1_9allocatorIcEEEERKNS0_4TimeE, symObjAddr: 0x3624, symBinAddr: 0x100046BF4, symSize: 0x23C }
  - { offset: 0x400E06, size: 0x8, addend: 0x0, symName: __ZN5hilti2rt7versionEv, symObjAddr: 0x0, symBinAddr: 0x1000436B8, symSize: 0x6C }
  - { offset: 0x400E74, size: 0x8, addend: 0x0, symName: __ZN5hilti2rt20abort_with_backtraceEv, symObjAddr: 0x6C, symBinAddr: 0x100043724, symSize: 0x18C }
  - { offset: 0x4014D7, size: 0x8, addend: 0x0, symName: __ZN5hilti2rt17cannot_be_reachedEv, symObjAddr: 0x1F8, symBinAddr: 0x1000438B0, symSize: 0x18 }
  - { offset: 0x4014F4, size: 0x8, addend: 0x0, symName: __ZN5hilti2rt14resource_usageEv, symObjAddr: 0x210, symBinAddr: 0x1000438C8, symSize: 0x170 }
  - { offset: 0x401517, size: 0x8, addend: 0x0, symName: __ZN5hilti2rt14resource_usageEv, symObjAddr: 0x210, symBinAddr: 0x1000438C8, symSize: 0x170 }
  - { offset: 0x4017A6, size: 0x8, addend: 0x0, symName: __ZN5hilti2rt6getenvERKNSt3__112basic_stringIcNS1_11char_traitsIcEENS1_9allocatorIcEEEE, symObjAddr: 0x3C0, symBinAddr: 0x100043A78, symSize: 0xE8 }
  - { offset: 0x401DA4, size: 0x8, addend: 0x0, symName: __ZN5hilti2rt19createTemporaryFileERKNSt3__112basic_stringIcNS1_11char_traitsIcEENS1_9allocatorIcEEEE, symObjAddr: 0x4A8, symBinAddr: 0x100043B60, symSize: 0x4D4 }
  - { offset: 0x401FFE, size: 0x8, addend: 0x0, symName: __ZN5hilti2rt19createTemporaryFileERKNSt3__112basic_stringIcNS1_11char_traitsIcEENS1_9allocatorIcEEEE, symObjAddr: 0x4A8, symBinAddr: 0x100043B60, symSize: 0x4D4 }
  - { offset: 0x404016, size: 0x8, addend: 0x0, symName: __ZN5hilti2rt13normalizePathERKN3ghc10filesystem4pathE, symObjAddr: 0xC08, symBinAddr: 0x100044210, symSize: 0xD8 }
  - { offset: 0x404480, size: 0x8, addend: 0x0, symName: __ZN5hilti2rt5splitENSt3__117basic_string_viewIcNS1_11char_traitsIcEEEES5_, symObjAddr: 0xDCC, symBinAddr: 0x1000443D4, symSize: 0x27C }
  - { offset: 0x404EC6, size: 0x8, addend: 0x0, symName: __ZN5hilti2rt5splitENSt3__117basic_string_viewIcNS1_11char_traitsIcEEEE, symObjAddr: 0x1168, symBinAddr: 0x100044770, symSize: 0x2F4 }
  - { offset: 0x405A70, size: 0x8, addend: 0x0, symName: __ZN5hilti2rt6split1ENSt3__112basic_stringIcNS1_11char_traitsIcEENS1_9allocatorIcEEEE, symObjAddr: 0x145C, symBinAddr: 0x100044A64, symSize: 0x3D8 }
  - { offset: 0x406FC6, size: 0x8, addend: 0x0, symName: __ZN5hilti2rt7rsplit1ENSt3__112basic_stringIcNS1_11char_traitsIcEENS1_9allocatorIcEEEE, symObjAddr: 0x1834, symBinAddr: 0x100044E3C, symSize: 0x3C4 }
  - { offset: 0x4084CA, size: 0x8, addend: 0x0, symName: __ZN5hilti2rt6split1ENSt3__112basic_stringIcNS1_11char_traitsIcEENS1_9allocatorIcEEEERKS7_, symObjAddr: 0x1BF8, symBinAddr: 0x100045200, symSize: 0x324 }
  - { offset: 0x40939D, size: 0x8, addend: 0x0, symName: __ZN5hilti2rt7rsplit1ENSt3__112basic_stringIcNS1_11char_traitsIcEENS1_9allocatorIcEEEERKS7_, symObjAddr: 0x1F1C, symBinAddr: 0x100045524, symSize: 0x320 }
  - { offset: 0x40A303, size: 0x8, addend: 0x0, symName: __ZN5hilti2rt17expandUTF8EscapesENSt3__112basic_stringIcNS1_11char_traitsIcEENS1_9allocatorIcEEEE, symObjAddr: 0x223C, symBinAddr: 0x100045844, symSize: 0x6D8 }
  - { offset: 0x40ABA9, size: 0x8, addend: 0x0, symName: __ZN5hilti2rt6atoi_nINSt3__111__wrap_iterIPcEEiEET_S6_S6_hPT0_, symObjAddr: 0x2984, symBinAddr: 0x100045F54, symSize: 0x18C }
  - { offset: 0x40ACA9, size: 0x8, addend: 0x0, symName: __ZN5hilti2rt10escapeUTF8ENSt3__117basic_string_viewIcNS1_11char_traitsIcEEEE7bitmaskINS0_12render_style4UTF8EE, symObjAddr: 0x2B14, symBinAddr: 0x1000460E4, symSize: 0x45C }
  - { offset: 0x40CD43, size: 0x8, addend: 0x0, symName: __ZN5hilti2rt11escapeBytesENSt3__117basic_string_viewIcNS1_11char_traitsIcEEEE7bitmaskINS0_12render_style5BytesEE, symObjAddr: 0x2F70, symBinAddr: 0x100046540, symSize: 0x448 }
  - { offset: 0x40D4F9, size: 0x8, addend: 0x0, symName: __ZN5hilti2rt7replaceENSt3__112basic_stringIcNS1_11char_traitsIcEENS1_9allocatorIcEEEENS1_17basic_string_viewIcS4_EES9_, symObjAddr: 0x33B8, symBinAddr: 0x100046988, symSize: 0x12C }
  - { offset: 0x40D786, size: 0x8, addend: 0x0, symName: __ZN5hilti2rt10startsWithENSt3__117basic_string_viewIcNS1_11char_traitsIcEEEES5_, symObjAddr: 0x34E4, symBinAddr: 0x100046AB4, symSize: 0x34 }
  - { offset: 0x40D83F, size: 0x8, addend: 0x0, symName: __ZN5hilti2rt15systemByteOrderEv, symObjAddr: 0x3518, symBinAddr: 0x100046AE8, symSize: 0x8 }
  - { offset: 0x40D88F, size: 0x8, addend: 0x0, symName: __ZN5hilti2rt8strftimeERKNSt3__112basic_stringIcNS1_11char_traitsIcEENS1_9allocatorIcEEEERKNS0_4TimeE, symObjAddr: 0x3624, symBinAddr: 0x100046BF4, symSize: 0x23C }
  - { offset: 0x40E063, size: 0x8, addend: 0x0, symName: __ZN5hilti2rt8strptimeERKNSt3__112basic_stringIcNS1_11char_traitsIcEENS1_9allocatorIcEEEES9_, symObjAddr: 0x3898, symBinAddr: 0x100046E30, symSize: 0x2CC }
  - { offset: 0x40FCFA, size: 0x8, addend: 0x0, symName: __ZN10tinyformat6formatIJA26_cEEENSt3__112basic_stringIcNS2_11char_traitsIcEENS2_9allocatorIcEEEEPKcDpRKT_, symObjAddr: 0x9394, symBinAddr: 0x10004A738, symSize: 0x1B8 }
  - { offset: 0x4103CE, size: 0x8, addend: 0x0, symName: __ZN10tinyformat6formatIJN3ghc10filesystem4pathEPcEEENSt3__112basic_stringIcNS5_11char_traitsIcEENS5_9allocatorIcEEEEPKcDpRKT_, symObjAddr: 0x95E4, symBinAddr: 0x10004A8F0, symSize: 0x1D0 }
  - { offset: 0x4121E7, size: 0x8, addend: 0x0, symName: __ZN5hilti2rt16EnvironmentErrorC1ENSt3__117basic_string_viewIcNS2_11char_traitsIcEEEES6_, symObjAddr: 0x380, symBinAddr: 0x100043A38, symSize: 0x40 }
  - { offset: 0x413CCC, size: 0x8, addend: 0x0, symName: __ZN3ghc10filesystem4pathdVERKS1_, symObjAddr: 0x3E24, symBinAddr: 0x1000470FC, symSize: 0x744 }
  - { offset: 0x415FCA, size: 0x8, addend: 0x0, symName: __ZN3ghc10filesystem4pathC1EONSt3__112basic_stringIcNS2_11char_traitsIcEENS2_9allocatorIcEEEENS1_6formatE, symObjAddr: 0xB6C, symBinAddr: 0x100044174, symSize: 0x5C }
  - { offset: 0x415FDB, size: 0x8, addend: 0x0, symName: __ZN3ghc10filesystem4pathC1EONSt3__112basic_stringIcNS2_11char_traitsIcEENS2_9allocatorIcEEEENS1_6formatE, symObjAddr: 0xB6C, symBinAddr: 0x100044174, symSize: 0x5C }
  - { offset: 0x4161A6, size: 0x8, addend: 0x0, symName: __ZN3ghc10filesystem4pathD1Ev, symObjAddr: 0xBC8, symBinAddr: 0x1000441D0, symSize: 0x40 }
  - { offset: 0x41648F, size: 0x8, addend: 0x0, symName: __ZN3ghc10filesystem16filesystem_errorC2ERKNSt3__112basic_stringIcNS2_11char_traitsIcEENS2_9allocatorIcEEEERKNS0_4pathENS2_10error_codeE, symObjAddr: 0x5A0C, symBinAddr: 0x100048738, symSize: 0x2C0 }
  - { offset: 0x417AE3, size: 0x8, addend: 0x0, symName: __ZNSt3__16vectorINS_17basic_string_viewIcNS_11char_traitsIcEEEENS_9allocatorIS4_EEE12emplace_backIJRA1_KcEEERS4_DpOT_, symObjAddr: 0x1048, symBinAddr: 0x100044650, symSize: 0x120 }
  - { offset: 0x4180D7, size: 0x8, addend: 0x0, symName: __ZN5hilti2rt5splitENSt3__117basic_string_viewIcNS1_11char_traitsIcEEEE, symObjAddr: 0x1168, symBinAddr: 0x100044770, symSize: 0x2F4 }
  - { offset: 0x418A41, size: 0x8, addend: 0x0, symName: __ZN5hilti2rt15FormattingErrorC2ENSt3__112basic_stringIcNS2_11char_traitsIcEENS2_9allocatorIcEEEE, symObjAddr: 0x7838, symBinAddr: 0x10004A550, symSize: 0x1D4 }
  - { offset: 0x4191E6, size: 0x8, addend: 0x0, symName: __ZN5hilti2rt12UnicodeErrorC1ENSt3__117basic_string_viewIcNS2_11char_traitsIcEEEE, symObjAddr: 0x294C, symBinAddr: 0x100045F1C, symSize: 0x38 }
  - { offset: 0x419341, size: 0x8, addend: 0x0, symName: __ZN5hilti2rt15FormattingErrorD1Ev, symObjAddr: 0x2B10, symBinAddr: 0x1000460E0, symSize: 0x4 }
  - { offset: 0x419363, size: 0x8, addend: 0x0, symName: __ZN5hilti2rt15FormattingErrorD1Ev, symObjAddr: 0x2B10, symBinAddr: 0x1000460E0, symSize: 0x4 }
  - { offset: 0x419F15, size: 0x8, addend: 0x0, symName: __ZNK3ghc10filesystem4path9root_nameEv, symObjAddr: 0x4568, symBinAddr: 0x100047840, symSize: 0x1F4 }
  - { offset: 0x41AAAC, size: 0x8, addend: 0x0, symName: __ZNK3ghc10filesystem4path17has_relative_pathEv, symObjAddr: 0x4E84, symBinAddr: 0x100047BB0, symSize: 0x164 }
  - { offset: 0x41AD21, size: 0x8, addend: 0x0, symName: __ZNK3ghc10filesystem4path8filenameEv, symObjAddr: 0x4FE8, symBinAddr: 0x100047D14, symSize: 0x184 }
  - { offset: 0x41B4A6, size: 0x8, addend: 0x0, symName: __ZN3ghc10filesystem4path8iteratorC2ERKS1_RKNSt3__111__wrap_iterIPKcEE, symObjAddr: 0x53F4, symBinAddr: 0x100048120, symSize: 0x1A4 }
  - { offset: 0x41B9B1, size: 0x8, addend: 0x0, symName: __ZN3ghc10filesystem4path8iteratorppEv, symObjAddr: 0x48A8, symBinAddr: 0x100047A34, symSize: 0x17C }
  - { offset: 0x41BD8B, size: 0x8, addend: 0x0, symName: __ZN3ghc10filesystem4path8iterator13updateCurrentEv, symObjAddr: 0x516C, symBinAddr: 0x100047E98, symSize: 0x288 }
  - { offset: 0x41C8C7, size: 0x8, addend: 0x0, symName: __ZN3ghc10filesystem16filesystem_errorD1Ev, symObjAddr: 0x5794, symBinAddr: 0x1000484C0, symSize: 0x80 }
  - { offset: 0x41CED9, size: 0x8, addend: 0x0, symName: __ZN3ghc10filesystem16filesystem_errorD0Ev, symObjAddr: 0x5CCC, symBinAddr: 0x1000489F8, symSize: 0x88 }
  - { offset: 0x41D2C4, size: 0x8, addend: 0x0, symName: __ZNK3ghc10filesystem16filesystem_error4whatEv, symObjAddr: 0x5D54, symBinAddr: 0x100048A80, symSize: 0x1C }
  - { offset: 0x41D55C, size: 0x8, addend: 0x0, symName: __ZNK3ghc10filesystem4path11parent_pathEv, symObjAddr: 0x6B98, symBinAddr: 0x1000498C4, symSize: 0x488 }
  - { offset: 0x41E46A, size: 0x8, addend: 0x0, symName: __ZNK3ghc10filesystem4path13relative_pathEv, symObjAddr: 0x73E4, symBinAddr: 0x10004A110, symSize: 0x23C }
  - { offset: 0x41F139, size: 0x8, addend: 0x0, symName: __ZN5hilti2rt15FormattingErrorC2ENSt3__112basic_stringIcNS2_11char_traitsIcEENS2_9allocatorIcEEEE, symObjAddr: 0x7838, symBinAddr: 0x10004A550, symSize: 0x1D4 }
  - { offset: 0x41F1C0, size: 0x8, addend: 0x0, symName: __ZN5hilti2rt15FormattingErrorD0Ev, symObjAddr: 0x7A0C, symBinAddr: 0x10004A724, symSize: 0x14 }
  - { offset: 0x421B66, size: 0x8, addend: 0x0, symName: _spicy_version_1_13_0, symObjAddr: 0x0, symBinAddr: 0x10004AAC0, symSize: 0xC }
  - { offset: 0x421B8A, size: 0x8, addend: 0x0, symName: _spicy_version_1_13_0, symObjAddr: 0x0, symBinAddr: 0x10004AAC0, symSize: 0xC }
  - { offset: 0x421BD0, size: 0x8, addend: 0x0, symName: _utf8proc_version, symObjAddr: 0x0, symBinAddr: 0x10004AACC, symSize: 0xC }
  - { offset: 0x421BEA, size: 0x8, addend: 0x0, symName: _utf8proc_utf8class, symObjAddr: 0x1AAD, symBinAddr: 0x100061AFD, symSize: 0x0 }
  - { offset: 0x421C39, size: 0x8, addend: 0x0, symName: _utf8proc_category_string, symObjAddr: 0x9C8, symBinAddr: 0x10004B494, symSize: 0x58 }
  - { offset: 0x421C61, size: 0x8, addend: 0x0, symName: _utf8proc_category_string.s, symObjAddr: 0x1BAD, symBinAddr: 0x100061BFD, symSize: 0x0 }
  - { offset: 0x421D01, size: 0x8, addend: 0x0, symName: _utf8proc_properties, symObjAddr: 0x4654, symBinAddr: 0x1000646A4, symSize: 0x0 }
  - { offset: 0x421E95, size: 0x8, addend: 0x0, symName: _utf8proc_stage2table, symObjAddr: 0x34C24, symBinAddr: 0x100094C74, symSize: 0x0 }
  - { offset: 0x421EC1, size: 0x8, addend: 0x0, symName: _utf8proc_stage1table, symObjAddr: 0x4AA24, symBinAddr: 0x1000AAA74, symSize: 0x0 }
  - { offset: 0x421EE6, size: 0x8, addend: 0x0, symName: _utf8proc_sequences, symObjAddr: 0x4CC24, symBinAddr: 0x1000ACC74, symSize: 0x0 }
  - { offset: 0x421F0C, size: 0x8, addend: 0x0, symName: _utf8proc_combinations, symObjAddr: 0x1C08, symBinAddr: 0x100061C58, symSize: 0x0 }
  - { offset: 0x42210B, size: 0x8, addend: 0x0, symName: _utf8proc_version, symObjAddr: 0x0, symBinAddr: 0x10004AACC, symSize: 0xC }
  - { offset: 0x422125, size: 0x8, addend: 0x0, symName: _utf8proc_unicode_version, symObjAddr: 0xC, symBinAddr: 0x10004AAD8, symSize: 0xC }
  - { offset: 0x42213F, size: 0x8, addend: 0x0, symName: _utf8proc_errmsg, symObjAddr: 0x18, symBinAddr: 0x10004AAE4, symSize: 0x28 }
  - { offset: 0x42216A, size: 0x8, addend: 0x0, symName: _utf8proc_iterate, symObjAddr: 0x40, symBinAddr: 0x10004AB0C, symSize: 0x158 }
  - { offset: 0x4221D1, size: 0x8, addend: 0x0, symName: _utf8proc_codepoint_valid, symObjAddr: 0x198, symBinAddr: 0x10004AC64, symSize: 0x14 }
  - { offset: 0x4221FC, size: 0x8, addend: 0x0, symName: _utf8proc_encode_char, symObjAddr: 0x1AC, symBinAddr: 0x10004AC78, symSize: 0xBC }
  - { offset: 0x422243, size: 0x8, addend: 0x0, symName: _utf8proc_get_property, symObjAddr: 0x268, symBinAddr: 0x10004AD34, symSize: 0x44 }
  - { offset: 0x42229C, size: 0x8, addend: 0x0, symName: _utf8proc_grapheme_break_stateful, symObjAddr: 0x2AC, symBinAddr: 0x10004AD78, symSize: 0x88 }
  - { offset: 0x42236B, size: 0x8, addend: 0x0, symName: _grapheme_break_extended, symObjAddr: 0x334, symBinAddr: 0x10004AE00, symSize: 0x250 }
  - { offset: 0x42251D, size: 0x8, addend: 0x0, symName: _utf8proc_grapheme_break, symObjAddr: 0x584, symBinAddr: 0x10004B050, symSize: 0x178 }
  - { offset: 0x422689, size: 0x8, addend: 0x0, symName: _utf8proc_tolower, symObjAddr: 0x6FC, symBinAddr: 0x10004B1C8, symSize: 0x80 }
  - { offset: 0x422750, size: 0x8, addend: 0x0, symName: _utf8proc_toupper, symObjAddr: 0x77C, symBinAddr: 0x10004B248, symSize: 0x80 }
  - { offset: 0x422817, size: 0x8, addend: 0x0, symName: _utf8proc_totitle, symObjAddr: 0x7FC, symBinAddr: 0x10004B2C8, symSize: 0x80 }
  - { offset: 0x4228DE, size: 0x8, addend: 0x0, symName: _utf8proc_islower, symObjAddr: 0x87C, symBinAddr: 0x10004B348, symSize: 0x54 }
  - { offset: 0x422959, size: 0x8, addend: 0x0, symName: _utf8proc_isupper, symObjAddr: 0x8D0, symBinAddr: 0x10004B39C, symSize: 0x6C }
  - { offset: 0x4229D4, size: 0x8, addend: 0x0, symName: _utf8proc_charwidth, symObjAddr: 0x93C, symBinAddr: 0x10004B408, symSize: 0x48 }
  - { offset: 0x422A3E, size: 0x8, addend: 0x0, symName: _utf8proc_category, symObjAddr: 0x984, symBinAddr: 0x10004B450, symSize: 0x44 }
  - { offset: 0x422AB6, size: 0x8, addend: 0x0, symName: _utf8proc_decompose_char, symObjAddr: 0xA20, symBinAddr: 0x10004B4EC, symSize: 0x4C4 }
  - { offset: 0x422BBB, size: 0x8, addend: 0x0, symName: _seqindex_write_char_decomposed, symObjAddr: 0xEE4, symBinAddr: 0x10004B9B0, symSize: 0xC4 }
  - { offset: 0x422CBA, size: 0x8, addend: 0x0, symName: _utf8proc_decompose, symObjAddr: 0xFA8, symBinAddr: 0x10004BA74, symSize: 0xC }
  - { offset: 0x422D5D, size: 0x8, addend: 0x0, symName: _utf8proc_decompose_custom, symObjAddr: 0xFB4, symBinAddr: 0x10004BA80, symSize: 0x27C }
  - { offset: 0x422FAB, size: 0x8, addend: 0x0, symName: _utf8proc_normalize_utf32, symObjAddr: 0x1230, symBinAddr: 0x10004BCFC, symSize: 0x474 }
  - { offset: 0x42320B, size: 0x8, addend: 0x0, symName: _utf8proc_reencode, symObjAddr: 0x16A4, symBinAddr: 0x10004C170, symSize: 0x1FC }
  - { offset: 0x423303, size: 0x8, addend: 0x0, symName: _utf8proc_map, symObjAddr: 0x18A0, symBinAddr: 0x10004C36C, symSize: 0xC }
  - { offset: 0x42336D, size: 0x8, addend: 0x0, symName: _utf8proc_map_custom, symObjAddr: 0x18AC, symBinAddr: 0x10004C378, symSize: 0xF0 }
  - { offset: 0x423598, size: 0x8, addend: 0x0, symName: _utf8proc_NFD, symObjAddr: 0x199C, symBinAddr: 0x10004C468, symSize: 0x34 }
  - { offset: 0x42363C, size: 0x8, addend: 0x0, symName: _utf8proc_NFC, symObjAddr: 0x19D0, symBinAddr: 0x10004C49C, symSize: 0x34 }
  - { offset: 0x4236E0, size: 0x8, addend: 0x0, symName: _utf8proc_NFKD, symObjAddr: 0x1A04, symBinAddr: 0x10004C4D0, symSize: 0x34 }
  - { offset: 0x423784, size: 0x8, addend: 0x0, symName: _utf8proc_NFKC, symObjAddr: 0x1A38, symBinAddr: 0x10004C504, symSize: 0x34 }
  - { offset: 0x423828, size: 0x8, addend: 0x0, symName: _utf8proc_NFKC_Casefold, symObjAddr: 0x1A6C, symBinAddr: 0x10004C538, symSize: 0x34 }
...
